(dp1
S'output'
p2
S"<type 'exceptions.AttributeError'> 'Rows' object has no attribute 'db'"
p3
sS'layer'
p4
S'/home/tanguyl/Documents/projetPython/web2py/applications/TEMPLATE/views/default/main.html'
p5
sS'code'
p6
S'response.write(\'<!DOCTYPE html>\\n<!--[if (gt IE 9)|!(IE)]><!--> <html class="no-js" lang="\', escape=False)\nresponse.write(T.accepted_language or \'en\')\nresponse.write(\'"> <!--<![endif]-->\\n  <head>\\n    <meta charset="utf-8">\\n    <!-- www.phpied.com/conditional-comments-block-downloads/ -->\\n    <!-- Always force latest IE rendering engine\\n         (even in intranet) & Chrome Frame\\n         Remove this if you use the .htaccess -->\\n    <meta http-equiv="X-UA-Compatible" content="IE=edge\', escape=False)\nresponse.write(not request.is_local and \',chrome=1\' or \'\')\nresponse.write(\'">\\n    <!--  Mobile Viewport Fix\\n          j.mp/mobileviewport & davidbcalhoun.com/2010/viewport-metatag\\n          device-width: Occupy full width of the screen in its current orientation\\n          initial-scale = 1.0 retains dimensions instead of zooming out if page height > device height\\n          user-scalable = yes allows the user to zoom in -->\\n    <meta name="viewport" content="width=device-width, initial-scale=1.0">\\n    <title>\', escape=False)\nresponse.write(response.title or request.application)\nresponse.write(\'</title>\\n    <!-- http://dev.w3.org/html5/markup/meta.name.html -->\\n    <meta name="application-name" content="\', escape=False)\nresponse.write(request.application)\nresponse.write(\'">\\n    <!-- Speaking of Google, don\\\'t forget to set your site up:\\n         http://google.com/webmasters -->\\n    <meta name="google-site-verification" content="">\\n    <!-- include stylesheets -->\\n    <link rel="stylesheet" href="\', escape=False)\nresponse.write(URL(\'static\',\'css/bootstrap.min.css\'))\nresponse.write(\'"/>\\n    <link rel="stylesheet" href="\', escape=False)\nresponse.write(URL(\'static\',\'css/bootstrap-theme.min.css\'))\nresponse.write(\'"/>\\n    <link rel="stylesheet" href="\', escape=False)\nresponse.write(URL(\'static\',\'css/web2py-bootstrap3.css\'))\nresponse.write(\'"/>\\n    <link rel="shortcut icon" href="\', escape=False)\nresponse.write(URL(\'static\',\'images/favicon.ico\'))\nresponse.write(\'" type="image/x-icon">\\n    <link rel="apple-touch-icon" href="\', escape=False)\nresponse.write(URL(\'static\',\'images/favicon.png\'))\nresponse.write(\'">\\n    <!-- All JavaScript at the bottom, except for Modernizr which enables\\n         HTML5 elements & feature detects -->\\n    <script src="\', escape=False)\nresponse.write(URL(\'static\',\'js/modernizr-2.8.3.min.js\'))\nresponse.write(\'"></script>\\n    <!--[if lt IE 9]>\\n        <script src="\', escape=False)\nresponse.write(URL(\'static\',\'js/respond-1.4.2.min.js\'))\nresponse.write(\'"></script>\\n        <![endif]-->\\n    <!-- Favicons -->\\n    \', escape=False)\nresponse.write(\'<script type="text/javascript"><!--\\n    // These variables are used by the web2py_ajax_init function in web2py_ajax.js (which is loaded below).\\n    var w2p_ajax_confirm_message = "\', escape=False)\nresponse.write(T(\'Are you sure you want to delete this object?\'))\nresponse.write(\'";\\n    var w2p_ajax_disable_with_message = "\', escape=False)\nresponse.write(T(\'Working...\'))\nresponse.write(\'";\\n    var w2p_ajax_date_format = "\', escape=False)\nresponse.write(T(\'%Y-%m-%d\'))\nresponse.write(\'";\\n    var w2p_ajax_datetime_format = "\', escape=False)\nresponse.write(T(\'%Y-%m-%d %H:%M:%S\'))\nresponse.write(\'";\\n    var ajax_error_500 = \\\'\', escape=False)\nresponse.write(T.M(\'An error occured, please [[reload %s]] the page\') % URL(args=request.args, vars=request.get_vars))\nresponse.write("\'\\n    //--></script>\\n", escape=False)\nresponse.files.insert(0,URL(\'static\',\'js/jquery.js\'))\nresponse.files.insert(1,URL(\'static\',\'css/calendar.css\'))\nresponse.files.insert(2,URL(\'static\',\'js/calendar.js\'))\nresponse.files.insert(3,URL(\'static\',\'js/web2py.js\'))\nresponse.include_meta()\nresponse.include_files()\nresponse.write(\'\\n\', escape=False)\nresponse.write(\' <!-- this includes jquery.js, calendar.js/.css and web2py.js -->\\n    \', escape=False)\nresponse.write(\'\\n    \', escape=False)\n# using sidebars need to know what sidebar you want to use\nmc0 = \'col-md-12\'\nmc1 = \'col-md-9\'\nmc2 = \'col-md-6\'\nleft_sidebar_enabled = globals().get(\'left_sidebar_enabled\', False)\nright_sidebar_enabled = globals().get(\'right_sidebar_enabled\', False)\nmiddle_column = {0: mc0, 1: mc1, 2: mc2}[\n(left_sidebar_enabled and 1 or 0)+(right_sidebar_enabled and 1 or 0)]\nresponse.write(\'\\n  </head>\\n  <body>\\n    <!--[if lt IE 8]><p class="browserupgrade">You are using an <strong>outdated</strong> browser. Please <a href="http://browsehappy.com/">upgrade your browser</a> to improve your experience.</p><![endif]-->\\n    <div class="flash alert alert-dismissable">\', escape=False)\nresponse.write(response.flash or \'\')\nresponse.write(\'</div>\\n    <!-- Navbar ======================================= -->\\n    <nav class="navbar navbar-inverse navbar-fixed-top" role="navigation">\\n      <div class="container-fluid">\\n        <div class="navbar-header">\\n          <button type="button" class="navbar-toggle" data-toggle="collapse" data-target=".navbar-collapse">\\n            <span class="sr-only">Toggle navigation</span>\\n            <span class="icon-bar"></span>\\n            <span class="icon-bar"></span>\\n            <span class="icon-bar"></span>\\n          </button>\\n          \', escape=False)\nresponse.write(response.logo or \'\')\nresponse.write(\'\\n        </div>\\n        <div class="collapse navbar-collapse navbar-ex1-collapse">\\n          <ul class="nav navbar-nav navbar-right">\\n            \', escape=False)\nresponse.write(\'auth\' in globals() and auth.navbar(\'Welcome\',mode=\'dropdown\') or \'\')\nresponse.write(\'\\n          </ul>\\n          \', escape=False)\nif response.menu:\n    response.write(\'\\n          \', escape=False)\n    response.write(MENU(response.menu, _class=\'nav navbar-nav\',li_class=\'dropdown\',ul_class=\'dropdown-menu\'))\n    response.write(\'\\n          \', escape=False)\n    pass\nresponse.write(\'\\n        </div>\\n      </div>\\n    </nav>\\n    <!-- Masthead ===================================== -->    \\n    \', escape=False)\nresponse.write(\'\\n    <header class="container-fluid background">\\n      <div class="jumbotron text-center">\\n      </div>\\n    </header>\\n\', escape=False)\nresponse.write(\'\\n    <!-- Main ========================================= -->\\n    <!-- Begin page content -->\\n    <div class="container-fluid">\\n      \', escape=False)\nif left_sidebar_enabled:\n    response.write(\'\\n        <div class="col-md-3 left-sidebar">\\n            \', escape=False)\n    response.write(\'\\n            <h3>Left Sidebar</h3>\\n            <p></p>\\n            \', escape=False)\n    response.write(\'\\n        </div>\\n      \', escape=False)\n    pass\nresponse.write(\'\\n\\n      <div class="\', escape=False)\nresponse.write(middle_column)\nresponse.write(\'">\\n        \', escape=False)\nresponse.write(\'\\n        \', escape=False)\nresponse.write("\\n<style type=\'text/css\'>\\nth {\\n\\ttext-align: center;\\n}\\n\\n</style>\\n", escape=False)\nresponse.write(\'\\n\\n\', escape=False)\nif \'message\' in globals():\n    response.write(\'\\n<h2>\', escape=False)\n    response.write(message)\n    response.write(\'</h2>\\n<p class="lead">\', escape=False)\n    response.write(T(\'How did you get here?\'))\n    response.write(\'</p>\\n<ol>\\n  <li>\', escape=False)\n    response.write(T(\'You are successfully running your IINS App\'))\n    response.write(\'</li>\\n <li>\', escape=False)\n    response.write(XML(T(\'The output of the F %s\', A(\'web2py/applications/default/manage_transactions.html\' % request,\n    _href=URL(args=(\'manage_transactions\'))))))\n    response.write(\'</li>\\n</ol>\\n\', escape=False)\nelif \'content\' in globals():\n    response.write(\'\\n\', escape=False)\n    response.write(content)\n    response.write(\'\\n\', escape=False)\nelse:\n    response.write(\'\\n\', escape=False)\n    response.write(BEAUTIFY(""))\n    response.write(\'\\n\', escape=False)\n    pass\nresponse.write(\'\\n<div class="container">\\n<!-- ligne fautive du doublon : =BEAUTIFY(response._vars) entouree des doubles accolades  -->\\n    <div class="row">\\n        <div id="web2py_user_form" class="col-lg-6">\\n\\t\\t\\t\', escape=False)\nif session.login == 1:\n    response.write(\'\\n            <h1>\', escape=False)\n    response.write(form)\n    response.write(\'</h1>\\n            \', escape=False)\nelse:\n    response.write(\'\\n            \', escape=False)\n    pass\nresponse.write(\'\\n        </div>\\n    </div>\\n</div>\\n<div class="container">\\n    <div class="row">\\n        <div id="web2py_user_form" class="jumbotron text-center">\\n            <h2></h2>\\n            \', escape=False)\nresponse.write(records)\nresponse.write(\'\\n        </div>\\n    </div>\\n</div>\\n\', escape=False)\nresponse.write(\'\\n        \', escape=False)\nresponse.write(\'\\n      </div>\\n\\n      \', escape=False)\nif right_sidebar_enabled:\n    response.write(\'\\n        <div class="col-md-3">\\n            \', escape=False)\n    response.write(\'\\n            <h3>Right Sidebar</h3>\\n            <p></p>\\n            \', escape=False)\n    response.write(\'\\n        </div>\\n      \', escape=False)\n    pass\nresponse.write(\'\\n\\n    </div>\\n\\n    \', escape=False)\nresponse.write(\' <!-- this is default footer -->      \\n    <footer class="footer">\\n      <div class="container-fluid">\\n        <div class="copyright pull-left">\', escape=False)\nresponse.write(T(\'Copyright\'))\nresponse.write(\' &#169; \', escape=False)\nresponse.write(request.now.year)\nresponse.write(\'</div>\\n          <div id="poweredBy" class="pull-right">\\n            \', escape=False)\nresponse.write(T(\'Powered by\'))\nresponse.write(\'\\n            <a href="http://intraiins.u-bordeaux2.fr/">IINS</a>\\n          </div>\\n      </div>\\n    </footer>\\n    \', escape=False)\nresponse.write(\'\\n    <!-- The javascript =============================== -->\\n    <script src="\', escape=False)\nresponse.write(URL(\'static\',\'js/bootstrap.min.js\'))\nresponse.write(\'"></script>\\n    <script src="\', escape=False)\nresponse.write(URL(\'static\',\'js/web2py-bootstrap3.js\'))\nresponse.write(\'"></script>\\n    \', escape=False)\nresponse.write(\'\\n    \', escape=False)\nif response.google_analytics_id:\n    response.write(\'\\n    <!-- Analytics ==================================== -->\\n    <script src="\', escape=False)\n    response.write(URL(\'static\',\'js/analytics.min.js\'))\n    response.write(\'"></script>\\n    <script type="text/javascript">\\n      analytics.initialize({\\n      \\\'Google Analytics\\\':{trackingId:\\\'\', escape=False)\n    response.write(response.google_analytics_id)\n    response.write("\'}\\n      });\\n    </script>\\n    ", escape=False)\n    pass\nresponse.write(\'\\n    <!-- Share ============================y============ -->\\n    <script src="\', escape=False)\nresponse.write(URL(\'static\',\'js/share.js\',vars=dict(static=URL(\'static\',\'images\'))))\nresponse.write(\'"></script>\\n  </body>\\n</html>\\n\', escape=False)'
p7
sS'snapshot'
p8
(dp9
S'exception'
p10
(dp11
S'__hash__'
p12
S"<method-wrapper '__hash__' of exceptions.AttributeError object>"
p13
sS'__setattr__'
p14
S"<method-wrapper '__setattr__' of exceptions.AttributeError object>"
p15
sS'__reduce_ex__'
p16
S'<built-in method __reduce_ex__ of exceptions.AttributeError object>'
p17
sS'__getslice__'
p18
S"<method-wrapper '__getslice__' of exceptions.AttributeError object>"
p19
sS'__getitem__'
p20
S"<method-wrapper '__getitem__' of exceptions.AttributeError object>"
p21
sS'__setstate__'
p22
S'<built-in method __setstate__ of exceptions.AttributeError object>'
p23
sS'args'
p24
S'("\'Rows\' object has no attribute \'db\'",)'
p25
sS'__reduce__'
p26
S'<built-in method __reduce__ of exceptions.AttributeError object>'
p27
sS'__str__'
p28
S"<method-wrapper '__str__' of exceptions.AttributeError object>"
p29
sS'__format__'
p30
S'<built-in method __format__ of exceptions.AttributeError object>'
p31
sS'__getattribute__'
p32
S"<method-wrapper '__getattribute__' of exceptions.AttributeError object>"
p33
sS'__class__'
p34
S"<type 'exceptions.AttributeError'>"
p35
sS'__unicode__'
p36
S'<built-in method __unicode__ of exceptions.AttributeError object>'
p37
sS'__delattr__'
p38
S"<method-wrapper '__delattr__' of exceptions.AttributeError object>"
p39
sS'__subclasshook__'
p40
S'<built-in method __subclasshook__ of type object>'
p41
sS'__repr__'
p42
S"<method-wrapper '__repr__' of exceptions.AttributeError object>"
p43
sS'__dict__'
p44
S'{}'
p45
sS'__sizeof__'
p46
S'<built-in method __sizeof__ of exceptions.AttributeError object>'
p47
sS'__doc__'
p48
S"'Attribute not found.'"
p49
sS'__init__'
p50
S"<method-wrapper '__init__' of exceptions.AttributeError object>"
p51
sS'__new__'
p52
S'<built-in method __new__ of type object>'
p53
ssS'evalue'
p54
S"'Rows' object has no attribute 'db'"
p55
sS'request'
p56
cgluon.html
XML_unpickle
p57
(S's7U\x00\x00<div><table><tr><td style="font-weight:bold;vertical-align:top;">ajax</td><td style="vertical-align:top;">:</td><td><div>False</div></td></tr><tr><td style="font-weight:bold;vertical-align:top;">application</td><td style="vertical-align:top;">:</td><td><div>TEMPLATE</div></td></tr><tr><td style="font-weight:bold;vertical-align:top;">args</td><td style="vertical-align:top;">:</td><td><div><table></table></div></td></tr><tr><td style="font-weight:bold;vertical-align:top;">cid</td><td style="vertical-align:top;">:</td><td><div>None</div></td></tr><tr><td style="font-weight:bold;vertical-align:top;">client</td><td style="vertical-align:top;">:</td><td><div>127.0.0.1</div></td></tr><tr><td style="font-weight:bold;vertical-align:top;">controller</td><td style="vertical-align:top;">:</td><td><div>default</div></td></tr><tr><td style="font-weight:bold;vertical-align:top;">cookies</td><td style="vertical-align:top;">:</td><td><div><table><tr><td style="font-weight:bold;vertical-align:top;">session_id_admin</td><td style="vertical-align:top;">:</td><td><div>127.0.0.1-d7ce76d5-c192-4c6d-bab1-b0ba33d28e54<table><tr><td style="font-weight:bold;vertical-align:top;">comment</td><td style="vertical-align:top;">:</td><td><div></div></td></tr><tr><td style="font-weight:bold;vertical-align:top;">domain</td><td style="vertical-align:top;">:</td><td><div></div></td></tr><tr><td style="font-weight:bold;vertical-align:top;">expires</td><td style="vertical-align:top;">:</td><td><div></div></td></tr><tr><td style="font-weight:bold;vertical-align:top;">httponly</td><td style="vertical-align:top;">:</td><td><div></div></td></tr><tr><td style="font-weight:bold;vertical-align:top;">max-age</td><td style="vertical-align:top;">:</td><td><div></div></td></tr><tr><td style="font-weight:bold;vertical-align:top;">path</td><td style="vertical-align:top;">:</td><td><div></div></td></tr><tr><td style="font-weight:bold;vertical-align:top;">secure</td><td style="vertical-align:top;">:</td><td><div></div></td></tr><tr><td style="font-weight:bold;vertical-align:top;">version</td><td style="vertical-align:top;">:</td><td><div></div></td></tr></table></div></td></tr><tr><td style="font-weight:bold;vertical-align:top;">session_id_template</td><td style="vertical-align:top;">:</td><td><div>127.0.0.1-bb0754ae-4de9-47f8-8b98-1eb2452b29d8<table><tr><td style="font-weight:bold;vertical-align:top;">comment</td><td style="vertical-align:top;">:</td><td><div></div></td></tr><tr><td style="font-weight:bold;vertical-align:top;">domain</td><td style="vertical-align:top;">:</td><td><div></div></td></tr><tr><td style="font-weight:bold;vertical-align:top;">expires</td><td style="vertical-align:top;">:</td><td><div></div></td></tr><tr><td style="font-weight:bold;vertical-align:top;">httponly</td><td style="vertical-align:top;">:</td><td><div></div></td></tr><tr><td style="font-weight:bold;vertical-align:top;">max-age</td><td style="vertical-align:top;">:</td><td><div></div></td></tr><tr><td style="font-weight:bold;vertical-align:top;">path</td><td style="vertical-align:top;">:</td><td><div></div></td></tr><tr><td style="font-weight:bold;vertical-align:top;">secure</td><td style="vertical-align:top;">:</td><td><div></div></td></tr><tr><td style="font-weight:bold;vertical-align:top;">version</td><td style="vertical-align:top;">:</td><td><div></div></td></tr></table></div></td></tr></table></div></td></tr><tr><td style="font-weight:bold;vertical-align:top;">env</td><td style="vertical-align:top;">:</td><td><div><table><tr><td style="font-weight:bold;vertical-align:top;">HTTP_ACCEPT</td><td style="vertical-align:top;">:</td><td><div>text/html,application/xhtml+xml,application/xml;q=0.9,*/*;q=0.8</div></td></tr><tr><td style="font-weight:bold;vertical-align:top;">HTTP_ACCEPT_ENCODING</td><td style="vertical-align:top;">:</td><td><div>gzip, deflate</div></td></tr><tr><td style="font-weight:bold;vertical-align:top;">HTTP_ACCEPT_LANGUAGE</td><td style="vertical-align:top;">:</td><td><div>fr,fr-FR;q=0.8,en-US;q=0.5,en;q=0.3</div></td></tr><tr><td style="font-weight:bold;vertical-align:top;">HTTP_CACHE_CONTROL</td><td style="vertical-align:top;">:</td><td><div>max-age=0</div></td></tr><tr><td style="font-weight:bold;vertical-align:top;">HTTP_CONNECTION</td><td style="vertical-align:top;">:</td><td><div>keep-alive</div></td></tr><tr><td style="font-weight:bold;vertical-align:top;">HTTP_COOKIE</td><td style="vertical-align:top;">:</td><td><div>session_id_template=127.0.0.1-bb0754ae-4de9-47f8-8b98-1eb2452b29d8; session_id_admin=127.0.0.1-d7ce76d5-c192-4c6d-bab1-b0ba33d28e54</div></td></tr><tr><td style="font-weight:bold;vertical-align:top;">HTTP_HOST</td><td style="vertical-align:top;">:</td><td><div>127.0.0.1:8000</div></td></tr><tr><td style="font-weight:bold;vertical-align:top;">HTTP_REFERER</td><td style="vertical-align:top;">:</td><td><div>http://127.0.0.1:8000/</div></td></tr><tr><td style="font-weight:bold;vertical-align:top;">HTTP_USER_AGENT</td><td style="vertical-align:top;">:</td><td><div>Mozilla/5.0 (X11; Linux x86_64; rv:38.0) Gecko/20100101 Firefox/38.0 Iceweasel/38.7.1</div></td></tr><tr><td style="font-weight:bold;vertical-align:top;">PATH_INFO</td><td style="vertical-align:top;">:</td><td><div>/main</div></td></tr><tr><td style="font-weight:bold;vertical-align:top;">QUERY_STRING</td><td style="vertical-align:top;">:</td><td><div></div></td></tr><tr><td style="font-weight:bold;vertical-align:top;">REMOTE_ADDR</td><td style="vertical-align:top;">:</td><td><div>127.0.0.1</div></td></tr><tr><td style="font-weight:bold;vertical-align:top;">REMOTE_PORT</td><td style="vertical-align:top;">:</td><td><div>39269</div></td></tr><tr><td style="font-weight:bold;vertical-align:top;">REQUEST_METHOD</td><td style="vertical-align:top;">:</td><td><div>GET</div></td></tr><tr><td style="font-weight:bold;vertical-align:top;">SCRIPT_NAME</td><td style="vertical-align:top;">:</td><td><div></div></td></tr><tr><td style="font-weight:bold;vertical-align:top;">SERVER_NAME</td><td style="vertical-align:top;">:</td><td><div>debian</div></td></tr><tr><td style="font-weight:bold;vertical-align:top;">SERVER_PORT</td><td style="vertical-align:top;">:</td><td><div>8000</div></td></tr><tr><td style="font-weight:bold;vertical-align:top;">SERVER_PROTOCOL</td><td style="vertical-align:top;">:</td><td><div>HTTP/1.1</div></td></tr><tr><td style="font-weight:bold;vertical-align:top;">SERVER_SOFTWARE</td><td style="vertical-align:top;">:</td><td><div>Rocket 1.2.6</div></td></tr><tr><td style="font-weight:bold;vertical-align:top;">app_folders</td><td style="vertical-align:top;">:</td><td><div>set([&#x27;/home/tanguyl/Documents/projetPython/web2py/applications/admin/&#x27;, &#x27;/home/tanguyl/Documents/projetPython/web2py/applications/TEMPLATE/&#x27;])</div></td></tr><tr><td style="font-weight:bold;vertical-align:top;">applications_parent</td><td style="vertical-align:top;">:</td><td><div>/home/tanguyl/Documents/projetPython/web2py</div></td></tr><tr><td style="font-weight:bold;vertical-align:top;">cmd_args</td><td style="vertical-align:top;">:</td><td><div><table></table></div></td></tr><tr><td style="font-weight:bold;vertical-align:top;">cmd_options</td><td style="vertical-align:top;">:</td><td><div>&lt;Values at 0x2963cb0: {&#x27;verbose&#x27;: False, &#x27;ip&#x27;: &#x27;127.0.0.1&#x27;, &#x27;debuglevel&#x27;: 30, &#x27;with_scheduler&#x27;: False, &#x27;shutdown_timeout&#x27;: 5, &#x27;taskbar&#x27;: False, &#x27;with_coverage&#x27;: False, &#x27;pid_filename&#x27;: &#x27;httpserver.pid&#x27;, &#x27;maxthreads&#x27;: None, &#x27;softcron&#x27;: False, &#x27;server_name&#x27;: &#x27;debian&#x27;, &#x27;bpython&#x27;: False, &#x27;nogui&#x27;: False, &#x27;port&#x27;: 8000, &#x27;print_errors&#x27;: False, &#x27;extcron&#x27;: False, &#x27;runcron&#x27;: False, &#x27;run_system_tests&#x27;: False, &#x27;test&#x27;: None, &#x27;folder&#x27;: &#x27;/home/tanguyl/Documents/projetPython/web2py&#x27;, &#x27;config&#x27;: &#x27;&#x27;, &#x27;minthreads&#x27;: None, &#x27;shell&#x27;: None, &#x27;run&#x27;: &#x27;&#x27;, &#x27;log_filename&#x27;: &#x27;httpserver.log&#x27;, &#x27;profiler_dir&#x27;: None, &#x27;args&#x27;: [&#x27;&#x27;], &#x27;socket_timeout&#x27;: 5, &#x27;ssl_ca_certificate&#x27;: None, &#x27;scheduler&#x27;: None, &#x27;interfaces&#x27;: None, &#x27;ssl_private_key&#x27;: &#x27;&#x27;, &#x27;gae&#x27;: None, &#x27;password&#x27;: &#x27;******&#x27;, &#x27;request_queue_size&#x27;: 5, &#x27;ssl_certificate&#x27;: &#x27;&#x27;, &#x27;cronjob&#x27;: False, &#x27;numthreads&#x27;: None, &#x27;quiet&#x27;: False, &#x27;import_models&#x27;: False, &#x27;timeout&#x27;: 10, &#x27;plain&#x27;: False, &#x27;nobanner&#x27;: False}&gt;</div></td></tr><tr><td style="font-weight:bold;vertical-align:top;">db_sessions</td><td style="vertical-align:top;">:</td><td><div>set([])</div></td></tr><tr><td style="font-weight:bold;vertical-align:top;">debugging</td><td style="vertical-align:top;">:</td><td><div>False</div></td></tr><tr><td style="font-weight:bold;vertical-align:top;">gluon_parent</td><td style="vertical-align:top;">:</td><td><div>/home/tanguyl/Documents/projetPython/web2py</div></td></tr><tr><td style="font-weight:bold;vertical-align:top;">http_accept</td><td style="vertical-align:top;">:</td><td><div>text/html,application/xhtml+xml,application/xml;q=0.9,*/*;q=0.8</div></td></tr><tr><td style="font-weight:bold;vertical-align:top;">http_accept_encoding</td><td style="vertical-align:top;">:</td><td><div>gzip, deflate</div></td></tr><tr><td style="font-weight:bold;vertical-align:top;">http_accept_language</td><td style="vertical-align:top;">:</td><td><div>fr,fr-FR;q=0.8,en-US;q=0.5,en;q=0.3</div></td></tr><tr><td style="font-weight:bold;vertical-align:top;">http_cache_control</td><td style="vertical-align:top;">:</td><td><div>max-age=0</div></td></tr><tr><td style="font-weight:bold;vertical-align:top;">http_connection</td><td style="vertical-align:top;">:</td><td><div>keep-alive</div></td></tr><tr><td style="font-weight:bold;vertical-align:top;">http_cookie</td><td style="vertical-align:top;">:</td><td><div>session_id_template=127.0.0.1-bb0754ae-4de9-47f8-8b98-1eb2452b29d8; session_id_admin=127.0.0.1-d7ce76d5-c192-4c6d-bab1-b0ba33d28e54</div></td></tr><tr><td style="font-weight:bold;vertical-align:top;">http_host</td><td style="vertical-align:top;">:</td><td><div>127.0.0.1:8000</div></td></tr><tr><td style="font-weight:bold;vertical-align:top;">http_referer</td><td style="vertical-align:top;">:</td><td><div>http://127.0.0.1:8000/</div></td></tr><tr><td style="font-weight:bold;vertical-align:top;">http_user_agent</td><td style="vertical-align:top;">:</td><td><div>Mozilla/5.0 (X11; Linux x86_64; rv:38.0) Gecko/20100101 Firefox/38.0 Iceweasel/38.7.1</div></td></tr><tr><td style="font-weight:bold;vertical-align:top;">is_jython</td><td style="vertical-align:top;">:</td><td><div>False</div></td></tr><tr><td style="font-weight:bold;vertical-align:top;">is_pypy</td><td style="vertical-align:top;">:</td><td><div>False</div></td></tr><tr><td style="font-weight:bold;vertical-align:top;">is_source</td><td style="vertical-align:top;">:</td><td><div>True</div></td></tr><tr><td style="font-weight:bold;vertical-align:top;">local_hosts</td><td style="vertical-align:top;">:</td><td><div><table><tr><td><div>::1</div></td></tr><tr><td><div>127.0.1.1</div></td></tr><tr><td><div>::ffff:127.0.0.1</div></td></tr><tr><td><div>127.0.0.1</div></td></tr><tr><td><div>debian</div></td></tr></table></div></td></tr><tr><td style="font-weight:bold;vertical-align:top;">path_info</td><td style="vertical-align:top;">:</td><td><div>/main</div></td></tr><tr><td style="font-weight:bold;vertical-align:top;">query_string</td><td style="vertical-align:top;">:</td><td><div></div></td></tr><tr><td style="font-weight:bold;vertical-align:top;">remote_addr</td><td style="vertical-align:top;">:</td><td><div>127.0.0.1</div></td></tr><tr><td style="font-weight:bold;vertical-align:top;">remote_port</td><td style="vertical-align:top;">:</td><td><div>39269</div></td></tr><tr><td style="font-weight:bold;vertical-align:top;">request_method</td><td style="vertical-align:top;">:</td><td><div>GET</div></td></tr><tr><td style="font-weight:bold;vertical-align:top;">request_uri</td><td style="vertical-align:top;">:</td><td><div>/TEMPLATE/default/main</div></td></tr><tr><td style="font-weight:bold;vertical-align:top;">script_name</td><td style="vertical-align:top;">:</td><td><div></div></td></tr><tr><td style="font-weight:bold;vertical-align:top;">server_name</td><td style="vertical-align:top;">:</td><td><div>debian</div></td></tr><tr><td style="font-weight:bold;vertical-align:top;">server_port</td><td style="vertical-align:top;">:</td><td><div>8000</div></td></tr><tr><td style="font-weight:bold;vertical-align:top;">server_protocol</td><td style="vertical-align:top;">:</td><td><div>HTTP/1.1</div></td></tr><tr><td style="font-weight:bold;vertical-align:top;">server_software</td><td style="vertical-align:top;">:</td><td><div>Rocket 1.2.6</div></td></tr><tr><td style="font-weight:bold;vertical-align:top;">web2py_original_uri</td><td style="vertical-align:top;">:</td><td><div>/main</div></td></tr><tr><td style="font-weight:bold;vertical-align:top;">web2py_path</td><td style="vertical-align:top;">:</td><td><div>/home/tanguyl/Documents/projetPython/web2py</div></td></tr><tr><td style="font-weight:bold;vertical-align:top;">web2py_version</td><td style="vertical-align:top;">:</td><td><div>2.14.3-stable+timestamp.2016.03.26.23.02.02</div></td></tr><tr><td style="font-weight:bold;vertical-align:top;">wsgi.errors</td><td style="vertical-align:top;">:</td><td><div>&lt;open file &#x27;&lt;stderr&gt;&#x27;, mode &#x27;w&#x27; at 0x7f7a9f670270&gt;</div></td></tr><tr><td style="font-weight:bold;vertical-align:top;">wsgi.file_wrapper</td><td style="vertical-align:top;">:</td><td><div>&lt;class wsgiref.util.FileWrapper at 0x28dab48&gt;</div></td></tr><tr><td style="font-weight:bold;vertical-align:top;">wsgi.input</td><td style="vertical-align:top;">:</td><td><div>&lt;socket._fileobject object at 0x4ad2b50&gt;</div></td></tr><tr><td style="font-weight:bold;vertical-align:top;">wsgi.multiprocess</td><td style="vertical-align:top;">:</td><td><div>False</div></td></tr><tr><td style="font-weight:bold;vertical-align:top;">wsgi.multithread</td><td style="vertical-align:top;">:</td><td><div>True</div></td></tr><tr><td style="font-weight:bold;vertical-align:top;">wsgi.run_once</td><td style="vertical-align:top;">:</td><td><div>False</div></td></tr><tr><td style="font-weight:bold;vertical-align:top;">wsgi.url_scheme</td><td style="vertical-align:top;">:</td><td><div>http</div></td></tr><tr><td style="font-weight:bold;vertical-align:top;">wsgi.version</td><td style="vertical-align:top;">:</td><td><div><table><tr><td><div>1</div></td></tr><tr><td><div>0</div></td></tr></table></div></td></tr><tr><td style="font-weight:bold;vertical-align:top;">wsgi_errors</td><td style="vertical-align:top;">:</td><td><div>&lt;open file &#x27;&lt;stderr&gt;&#x27;, mode &#x27;w&#x27; at 0x7f7a9f670270&gt;</div></td></tr><tr><td style="font-weight:bold;vertical-align:top;">wsgi_file_wrapper</td><td style="vertical-align:top;">:</td><td><div>&lt;class wsgiref.util.FileWrapper at 0x28dab48&gt;</div></td></tr><tr><td style="font-weight:bold;vertical-align:top;">wsgi_input</td><td style="vertical-align:top;">:</td><td><div>&lt;socket._fileobject object at 0x4ad2b50&gt;</div></td></tr><tr><td style="font-weight:bold;vertical-align:top;">wsgi_multiprocess</td><td style="vertical-align:top;">:</td><td><div>False</div></td></tr><tr><td style="font-weight:bold;vertical-align:top;">wsgi_multithread</td><td style="vertical-align:top;">:</td><td><div>True</div></td></tr><tr><td style="font-weight:bold;vertical-align:top;">wsgi_run_once</td><td style="vertical-align:top;">:</td><td><div>False</div></td></tr><tr><td style="font-weight:bold;vertical-align:top;">wsgi_url_scheme</td><td style="vertical-align:top;">:</td><td><div>http</div></td></tr><tr><td style="font-weight:bold;vertical-align:top;">wsgi_version</td><td style="vertical-align:top;">:</td><td><div><table><tr><td><div>1</div></td></tr><tr><td><div>0</div></td></tr></table></div></td></tr></table></div></td></tr><tr><td style="font-weight:bold;vertical-align:top;">extension</td><td style="vertical-align:top;">:</td><td><div>html</div></td></tr><tr><td style="font-weight:bold;vertical-align:top;">folder</td><td style="vertical-align:top;">:</td><td><div>/home/tanguyl/Documents/projetPython/web2py/applications/TEMPLATE/</div></td></tr><tr><td style="font-weight:bold;vertical-align:top;">function</td><td style="vertical-align:top;">:</td><td><div>main</div></td></tr><tr><td style="font-weight:bold;vertical-align:top;">global_settings</td><td style="vertical-align:top;">:</td><td><div><table><tr><td style="font-weight:bold;vertical-align:top;">app_folders</td><td style="vertical-align:top;">:</td><td><div>set([&#x27;/home/tanguyl/Documents/projetPython/web2py/applications/admin/&#x27;, &#x27;/home/tanguyl/Documents/projetPython/web2py/applications/TEMPLATE/&#x27;])</div></td></tr><tr><td style="font-weight:bold;vertical-align:top;">applications_parent</td><td style="vertical-align:top;">:</td><td><div>/home/tanguyl/Documents/projetPython/web2py</div></td></tr><tr><td style="font-weight:bold;vertical-align:top;">cmd_args</td><td style="vertical-align:top;">:</td><td><div><table></table></div></td></tr><tr><td style="font-weight:bold;vertical-align:top;">cmd_options</td><td style="vertical-align:top;">:</td><td><div>&lt;Values at 0x2963cb0: {&#x27;verbose&#x27;: False, &#x27;ip&#x27;: &#x27;127.0.0.1&#x27;, &#x27;debuglevel&#x27;: 30, &#x27;with_scheduler&#x27;: False, &#x27;shutdown_timeout&#x27;: 5, &#x27;taskbar&#x27;: False, &#x27;with_coverage&#x27;: False, &#x27;pid_filename&#x27;: &#x27;httpserver.pid&#x27;, &#x27;maxthreads&#x27;: None, &#x27;softcron&#x27;: False, &#x27;server_name&#x27;: &#x27;debian&#x27;, &#x27;bpython&#x27;: False, &#x27;nogui&#x27;: False, &#x27;port&#x27;: 8000, &#x27;print_errors&#x27;: False, &#x27;extcron&#x27;: False, &#x27;runcron&#x27;: False, &#x27;run_system_tests&#x27;: False, &#x27;test&#x27;: None, &#x27;folder&#x27;: &#x27;/home/tanguyl/Documents/projetPython/web2py&#x27;, &#x27;config&#x27;: &#x27;&#x27;, &#x27;minthreads&#x27;: None, &#x27;shell&#x27;: None, &#x27;run&#x27;: &#x27;&#x27;, &#x27;log_filename&#x27;: &#x27;httpserver.log&#x27;, &#x27;profiler_dir&#x27;: None, &#x27;args&#x27;: [&#x27;&#x27;], &#x27;socket_timeout&#x27;: 5, &#x27;ssl_ca_certificate&#x27;: None, &#x27;scheduler&#x27;: None, &#x27;interfaces&#x27;: None, &#x27;ssl_private_key&#x27;: &#x27;&#x27;, &#x27;gae&#x27;: None, &#x27;password&#x27;: &#x27;******&#x27;, &#x27;request_queue_size&#x27;: 5, &#x27;ssl_certificate&#x27;: &#x27;&#x27;, &#x27;cronjob&#x27;: False, &#x27;numthreads&#x27;: None, &#x27;quiet&#x27;: False, &#x27;import_models&#x27;: False, &#x27;timeout&#x27;: 10, &#x27;plain&#x27;: False, &#x27;nobanner&#x27;: False}&gt;</div></td></tr><tr><td style="font-weight:bold;vertical-align:top;">db_sessions</td><td style="vertical-align:top;">:</td><td><div>set([])</div></td></tr><tr><td style="font-weight:bold;vertical-align:top;">debugging</td><td style="vertical-align:top;">:</td><td><div>False</div></td></tr><tr><td style="font-weight:bold;vertical-align:top;">gluon_parent</td><td style="vertical-align:top;">:</td><td><div>/home/tanguyl/Documents/projetPython/web2py</div></td></tr><tr><td style="font-weight:bold;vertical-align:top;">is_jython</td><td style="vertical-align:top;">:</td><td><div>False</div></td></tr><tr><td style="font-weight:bold;vertical-align:top;">is_pypy</td><td style="vertical-align:top;">:</td><td><div>False</div></td></tr><tr><td style="font-weight:bold;vertical-align:top;">is_source</td><td style="vertical-align:top;">:</td><td><div>True</div></td></tr><tr><td style="font-weight:bold;vertical-align:top;">local_hosts</td><td style="vertical-align:top;">:</td><td><div><table><tr><td><div>::1</div></td></tr><tr><td><div>127.0.1.1</div></td></tr><tr><td><div>::ffff:127.0.0.1</div></td></tr><tr><td><div>127.0.0.1</div></td></tr><tr><td><div>debian</div></td></tr></table></div></td></tr><tr><td style="font-weight:bold;vertical-align:top;">web2py_version</td><td style="vertical-align:top;">:</td><td><div>2.14.3-stable+timestamp.2016.03.26.23.02.02</div></td></tr></table></div></td></tr><tr><td style="font-weight:bold;vertical-align:top;">is_https</td><td style="vertical-align:top;">:</td><td><div>False</div></td></tr><tr><td style="font-weight:bold;vertical-align:top;">is_local</td><td style="vertical-align:top;">:</td><td><div>True</div></td></tr><tr><td style="font-weight:bold;vertical-align:top;">is_restful</td><td style="vertical-align:top;">:</td><td><div>False</div></td></tr><tr><td style="font-weight:bold;vertical-align:top;">is_scheduler</td><td style="vertical-align:top;">:</td><td><div>False</div></td></tr><tr><td style="font-weight:bold;vertical-align:top;">is_shell</td><td style="vertical-align:top;">:</td><td><div>False</div></td></tr><tr><td style="font-weight:bold;vertical-align:top;">now</td><td style="vertical-align:top;">:</td><td><div>datetime.datetime(2016, 4, 20, 14, 37, 38, 888202)</div></td></tr><tr><td style="font-weight:bold;vertical-align:top;">url</td><td style="vertical-align:top;">:</td><td><div>/main</div></td></tr><tr><td style="font-weight:bold;vertical-align:top;">utcnow</td><td style="vertical-align:top;">:</td><td><div>datetime.datetime(2016, 4, 20, 12, 37, 38, 888226)</div></td></tr><tr><td style="font-weight:bold;vertical-align:top;">wsgi</td><td style="vertical-align:top;">:</td><td><div>&lt;gluon.main.LazyWSGI object at 0x3919310&gt;</div></td></tr></table></div>'
tRp58
sS'frames'
p59
(lp60
(dp61
S'file'
p62
S'/home/tanguyl/Documents/projetPython/web2py/gluon/restricted.py'
p63
sS'dump'
p64
(dp65
S'environment'
p66
S"{'A': <class 'gluon.html.A'>, 'ANY_OF': <class 'gluon.validators.ANY_OF'>, 'ASSIGNJS': <function ASSIGNJS>, 'AppConfig': <function AppConfig>, 'Auth': <class 'gluon.tools.Auth'>, 'B': <class 'gluon.html.B'>, 'BEAUTIFY': <class 'gluon.html.BEAUTIFY'>, 'BODY': <class 'gluon.html.BODY'>, 'BR': <class 'gluon.html.BR'>, 'BUTTON': <class 'gluon.html.BUTTON'>, ...}"
p67
sS'ccode'
p68
S'<code object <module> at 0x4c4f830, file "/home/...ations/TEMPLATE/views/default/main.html", line 1>'
p69
ssS'lnum'
p70
I227
sS'lines'
p71
(dp72
I224
S'            ccode = code'
p73
sI225
S'        else:'
p74
sI226
S'            ccode = compile2(code, layer)'
p75
sI227
S'        exec ccode in environment'
p76
sI228
S'    except HTTP:'
p77
sI229
S'        raise'
p78
sI230
S'    except RestrictedError:'
p79
sI231
S'        # do not encapsulate (obfuscate) the original RestrictedError'
p80
sI222
S'    try:'
p81
sI223
S'        if isinstance(code, types.CodeType):'
p82
ssS'call'
p83
S'(code=\'response.write(\\\'<!DOCTYPE html>\\\\n<!--[if (gt IE ..."></script>\\\\n  </body>\\\\n</html>\\\\n\\\', escape=False)\', environment={\'A\': <class \'gluon.html.A\'>, \'ANY_OF\': <class \'gluon.validators.ANY_OF\'>, \'ASSIGNJS\': <function ASSIGNJS>, \'AppConfig\': <function AppConfig>, \'Auth\': <class \'gluon.tools.Auth\'>, \'B\': <class \'gluon.html.B\'>, \'BEAUTIFY\': <class \'gluon.html.BEAUTIFY\'>, \'BODY\': <class \'gluon.html.BODY\'>, \'BR\': <class \'gluon.html.BR\'>, \'BUTTON\': <class \'gluon.html.BUTTON\'>, ...}, layer=\'/home/tanguyl/Documents/projetPython/web2py/applications/TEMPLATE/views/default/main.html\')'
p84
sS'func'
p85
S'restricted'
p86
sa(dp87
g62
S'/home/tanguyl/Documents/projetPython/web2py/applications/TEMPLATE/views/default/main.html'
p88
sg64
(dp89
sg70
I107
sg71
(dp90
I98
S'response.write(\'\\n<div class="container">\\n<!-- ligne fautive du doublon : =BEAUTIFY(response._vars) entouree des doubles accolades  -->\\n    <div class="row">\\n        <div id="web2py_user_form" class="col-lg-6">\\n\\t\\t\\t\', escape=False)'
p91
sI99
S'if session.login == 1:'
p92
sI100
S"    response.write('\\n            <h1>', escape=False)"
p93
sI101
S'    response.write(form)'
p94
sI102
S"    response.write('</h1>\\n            ', escape=False)"
p95
sI103
S'else:'
p96
sI104
S"    response.write('\\n            ', escape=False)"
p97
sI105
S'    pass'
p98
sI106
S'response.write(\'\\n        </div>\\n    </div>\\n</div>\\n<div class="container">\\n    <div class="row">\\n        <div id="web2py_user_form" class="jumbotron text-center">\\n            <h2></h2>\\n            \', escape=False)'
p99
sI107
S'response.write(records)'
p100
sI108
S"response.write('\\n        </div>\\n    </div>\\n</div>\\n', escape=False)"
p101
sI109
S"response.write('\\n        ', escape=False)"
p102
sI110
S"response.write('\\n      </div>\\n\\n      ', escape=False)"
p103
sI111
S'if right_sidebar_enabled:'
p104
sI112
S'    response.write(\'\\n        <div class="col-md-3">\\n            \', escape=False)'
p105
sI113
S"    response.write('\\n            <h3>Right Sidebar</h3>\\n            <p></p>\\n            ', escape=False)"
p106
sI114
S"    response.write('\\n        </div>\\n      ', escape=False)"
p107
sI115
S'    pass'
p108
sI116
S"response.write('\\n\\n    </div>\\n\\n    ', escape=False)"
p109
sI117
S'response.write(\' <!-- this is default footer -->      \\n    <footer class="footer">\\n      <div class="container-fluid">\\n        <div class="copyright pull-left">\', escape=False)'
p110
ssg83
S'()'
p111
sg85
S'<module>'
p112
sa(dp113
g62
S'/home/tanguyl/Documents/projetPython/web2py/gluon/globals.py'
p114
sg64
(dp115
S'self.body.write'
p116
S'<built-in method write of cStringIO.StringO object>'
p117
sS'self.body'
p118
S'<cStringIO.StringO object>'
p119
sS'self'
p120
S"<Storage {'body': <cStringIO.StringO object at 0...bda> at 0x4cfbe60>, 'view': 'default/main.html'}>"
p121
sS'global xmlescape'
p122
S'<function xmlescape>'
p123
sS'data'
p124
S'<gluon.html.DIV object>'
p125
ssg70
I430
sg71
(dp126
I425
S''
sI426
S'    def write(self, data, escape=True):'
p127
sI427
S'        if not escape:'
p128
sI428
S'            self.body.write(str(data))'
p129
sI429
S'        else:'
p130
sI430
S'            self.body.write(xmlescape(data))'
p131
sI431
S''
sI432
S'    def render(self, *a, **b):'
p132
sI433
S'        from compileapp import run_view_in'
p133
sI434
S'        if len(a) > 2:'
p134
ssg83
S"(self=<Storage {'body': <cStringIO.StringO object at 0...bda> at 0x4cfbe60>, 'view': 'default/main.html'}>, data=<gluon.html.DIV object>, escape=True)"
p135
sg85
S'write'
p136
sa(dp137
g62
S'/home/tanguyl/Documents/projetPython/web2py/gluon/html.py'
p138
sg64
(dp139
S'data'
p140
S'<gluon.html.DIV object>'
p141
sS'data.xml'
p142
S'<bound method DIV.xml of <gluon.html.DIV object>>'
p143
ssg70
I131
sg71
(dp144
I128
S''
sI129
S'    # first try the xml function'
p145
sI130
S"    if hasattr(data, 'xml') and callable(data.xml):"
p146
sI131
S'        return data.xml()'
p147
sI132
S''
sI133
S'    # otherwise, make it a string'
p148
sI134
S'    if not isinstance(data, (str, unicode)):'
p149
sI135
S'        data = str(data)'
p150
sI126
S'        quote: optional (default False)'
p151
sI127
S'    """'
p152
ssg83
S'(data=<gluon.html.DIV object>, quote=True)'
p153
sg85
S'xmlescape'
p154
sa(dp155
g62
S'/home/tanguyl/Documents/projetPython/web2py/gluon/html.py'
p156
sg64
(dp157
S'fa'
p158
S'undefined'
p159
sS'self'
p160
S'<gluon.html.DIV object>'
p161
sS'co'
p162
g159
sS'self._xml'
p163
S'<bound method DIV._xml of <gluon.html.DIV object>>'
p164
ssg70
I966
sg71
(dp165
I961
S'    def xml(self):'
p166
sI962
S'        """'
p167
sI963
S'        generates the xml for this component.'
p168
sI964
S'        """'
p169
sI965
S''
sI966
S'        (fa, co) = self._xml()'
p170
sI967
S''
sI968
S'        if not self.tag:'
p171
sI969
S'            return co'
p172
sI970
S''
ssg83
S'(self=<gluon.html.DIV object>)'
p173
sg85
S'xml'
p174
sa(dp175
g62
S'/home/tanguyl/Documents/projetPython/web2py/gluon/html.py'
p176
sg64
(dp177
S'self'
p178
S'<gluon.html.DIV object>'
p179
sS'self.components'
p180
S'[<gluon.html.DIV object>, <gluon.html.DIV object>, <gluon.html.DIV object>]'
p181
ssg70
I957
sg71
(dp182
I960
S''
sI961
S'    def xml(self):'
p183
sI952
S"        fa = ''"
p184
sI953
S'        for name, value in attr:'
p185
sI954
S'            fa += \' %s="%s"\' % (name, xmlescape(value, True))'
p186
sI955
S'        # get the xml for the inner components'
p187
sI956
S'        co = join([xmlescape(component) for component in'
p188
sI957
S'                   self.components])'
p189
sI958
S''
sI959
S'        return (fa, co)'
p190
ssg83
S'(self=<gluon.html.DIV object>)'
p191
sg85
S'_xml'
p192
sa(dp193
g62
S'/home/tanguyl/Documents/projetPython/web2py/gluon/html.py'
p194
sg64
(dp195
S'data'
p196
S'<gluon.html.DIV object>'
p197
sS'data.xml'
p198
S'<bound method DIV.xml of <gluon.html.DIV object>>'
p199
ssg70
I131
sg71
(dp200
I128
S''
sI129
S'    # first try the xml function'
p201
sI130
S"    if hasattr(data, 'xml') and callable(data.xml):"
p202
sI131
S'        return data.xml()'
p203
sI132
S''
sI133
S'    # otherwise, make it a string'
p204
sI134
S'    if not isinstance(data, (str, unicode)):'
p205
sI135
S'        data = str(data)'
p206
sI126
S'        quote: optional (default False)'
p207
sI127
S'    """'
p208
ssg83
S'(data=<gluon.html.DIV object>, quote=True)'
p209
sg85
g154
sa(dp210
g62
S'/home/tanguyl/Documents/projetPython/web2py/gluon/html.py'
p211
sg64
(dp212
S'fa'
p213
g159
sS'self'
p214
S'<gluon.html.DIV object>'
p215
sS'co'
p216
g159
sS'self._xml'
p217
S'<bound method DIV._xml of <gluon.html.DIV object>>'
p218
ssg70
I966
sg71
(dp219
I961
S'    def xml(self):'
p220
sI962
S'        """'
p221
sI963
S'        generates the xml for this component.'
p222
sI964
S'        """'
p223
sI965
S''
sI966
S'        (fa, co) = self._xml()'
p224
sI967
S''
sI968
S'        if not self.tag:'
p225
sI969
S'            return co'
p226
sI970
S''
ssg83
S'(self=<gluon.html.DIV object>)'
p227
sg85
g174
sa(dp228
g62
S'/home/tanguyl/Documents/projetPython/web2py/gluon/html.py'
p229
sg64
(dp230
S'self'
p231
S'<gluon.html.DIV object>'
p232
sS'self.components'
p233
S'[<gluon.html.DIV object>]'
p234
ssg70
I957
sg71
(dp235
I960
S''
sI961
S'    def xml(self):'
p236
sI952
S"        fa = ''"
p237
sI953
S'        for name, value in attr:'
p238
sI954
S'            fa += \' %s="%s"\' % (name, xmlescape(value, True))'
p239
sI955
S'        # get the xml for the inner components'
p240
sI956
S'        co = join([xmlescape(component) for component in'
p241
sI957
S'                   self.components])'
p242
sI958
S''
sI959
S'        return (fa, co)'
p243
ssg83
S'(self=<gluon.html.DIV object>)'
p244
sg85
g192
sa(dp245
g62
S'/home/tanguyl/Documents/projetPython/web2py/gluon/html.py'
p246
sg64
(dp247
S'data'
p248
S'<gluon.html.DIV object>'
p249
sS'data.xml'
p250
S'<bound method DIV.xml of <gluon.html.DIV object>>'
p251
ssg70
I131
sg71
(dp252
I128
S''
sI129
S'    # first try the xml function'
p253
sI130
S"    if hasattr(data, 'xml') and callable(data.xml):"
p254
sI131
S'        return data.xml()'
p255
sI132
S''
sI133
S'    # otherwise, make it a string'
p256
sI134
S'    if not isinstance(data, (str, unicode)):'
p257
sI135
S'        data = str(data)'
p258
sI126
S'        quote: optional (default False)'
p259
sI127
S'    """'
p260
ssg83
S'(data=<gluon.html.DIV object>, quote=True)'
p261
sg85
g154
sa(dp262
g62
S'/home/tanguyl/Documents/projetPython/web2py/gluon/html.py'
p263
sg64
(dp264
S'fa'
p265
g159
sS'self'
p266
S'<gluon.html.DIV object>'
p267
sS'co'
p268
g159
sS'self._xml'
p269
S'<bound method DIV._xml of <gluon.html.DIV object>>'
p270
ssg70
I966
sg71
(dp271
I961
S'    def xml(self):'
p272
sI962
S'        """'
p273
sI963
S'        generates the xml for this component.'
p274
sI964
S'        """'
p275
sI965
S''
sI966
S'        (fa, co) = self._xml()'
p276
sI967
S''
sI968
S'        if not self.tag:'
p277
sI969
S'            return co'
p278
sI970
S''
ssg83
S'(self=<gluon.html.DIV object>)'
p279
sg85
g174
sa(dp280
g62
S'/home/tanguyl/Documents/projetPython/web2py/gluon/html.py'
p281
sg64
(dp282
S'self'
p283
S'<gluon.html.DIV object>'
p284
sS'self.components'
p285
S'[<gluon.html.TABLE object>]'
p286
ssg70
I957
sg71
(dp287
I960
S''
sI961
S'    def xml(self):'
p288
sI952
S"        fa = ''"
p289
sI953
S'        for name, value in attr:'
p290
sI954
S'            fa += \' %s="%s"\' % (name, xmlescape(value, True))'
p291
sI955
S'        # get the xml for the inner components'
p292
sI956
S'        co = join([xmlescape(component) for component in'
p293
sI957
S'                   self.components])'
p294
sI958
S''
sI959
S'        return (fa, co)'
p295
ssg83
S'(self=<gluon.html.DIV object>)'
p296
sg85
g192
sa(dp297
g62
S'/home/tanguyl/Documents/projetPython/web2py/gluon/html.py'
p298
sg64
(dp299
S'data'
p300
S'<gluon.html.TABLE object>'
p301
sS'data.xml'
p302
S'<bound method TABLE.xml of <gluon.html.TABLE object>>'
p303
ssg70
I131
sg71
(dp304
I128
S''
sI129
S'    # first try the xml function'
p305
sI130
S"    if hasattr(data, 'xml') and callable(data.xml):"
p306
sI131
S'        return data.xml()'
p307
sI132
S''
sI133
S'    # otherwise, make it a string'
p308
sI134
S'    if not isinstance(data, (str, unicode)):'
p309
sI135
S'        data = str(data)'
p310
sI126
S'        quote: optional (default False)'
p311
sI127
S'    """'
p312
ssg83
S'(data=<gluon.html.TABLE object>, quote=True)'
p313
sg85
g154
sa(dp314
g62
S'/home/tanguyl/Documents/projetPython/web2py/gluon/html.py'
p315
sg64
(dp316
S'fa'
p317
g159
sS'self'
p318
S'<gluon.html.TABLE object>'
p319
sS'co'
p320
g159
sS'self._xml'
p321
S'<bound method TABLE._xml of <gluon.html.TABLE object>>'
p322
ssg70
I966
sg71
(dp323
I961
S'    def xml(self):'
p324
sI962
S'        """'
p325
sI963
S'        generates the xml for this component.'
p326
sI964
S'        """'
p327
sI965
S''
sI966
S'        (fa, co) = self._xml()'
p328
sI967
S''
sI968
S'        if not self.tag:'
p329
sI969
S'            return co'
p330
sI970
S''
ssg83
S'(self=<gluon.html.TABLE object>)'
p331
sg85
g174
sa(dp332
g62
S'/home/tanguyl/Documents/projetPython/web2py/gluon/html.py'
p333
sg64
(dp334
S'self'
p335
S'<gluon.html.TABLE object>'
p336
sS'self.components'
p337
S'[<gluon.html.COLGROUP object>, <gluon.html.THEAD object>, <gluon.html.TBODY object>]'
p338
ssg70
I957
sg71
(dp339
I960
S''
sI961
S'    def xml(self):'
p340
sI952
S"        fa = ''"
p341
sI953
S'        for name, value in attr:'
p342
sI954
S'            fa += \' %s="%s"\' % (name, xmlescape(value, True))'
p343
sI955
S'        # get the xml for the inner components'
p344
sI956
S'        co = join([xmlescape(component) for component in'
p345
sI957
S'                   self.components])'
p346
sI958
S''
sI959
S'        return (fa, co)'
p347
ssg83
S'(self=<gluon.html.TABLE object>)'
p348
sg85
g192
sa(dp349
g62
S'/home/tanguyl/Documents/projetPython/web2py/gluon/html.py'
p350
sg64
(dp351
S'data'
p352
S'<gluon.html.TBODY object>'
p353
sS'data.xml'
p354
S'<bound method TBODY.xml of <gluon.html.TBODY object>>'
p355
ssg70
I131
sg71
(dp356
I128
S''
sI129
S'    # first try the xml function'
p357
sI130
S"    if hasattr(data, 'xml') and callable(data.xml):"
p358
sI131
S'        return data.xml()'
p359
sI132
S''
sI133
S'    # otherwise, make it a string'
p360
sI134
S'    if not isinstance(data, (str, unicode)):'
p361
sI135
S'        data = str(data)'
p362
sI126
S'        quote: optional (default False)'
p363
sI127
S'    """'
p364
ssg83
S'(data=<gluon.html.TBODY object>, quote=True)'
p365
sg85
g154
sa(dp366
g62
S'/home/tanguyl/Documents/projetPython/web2py/gluon/html.py'
p367
sg64
(dp368
S'fa'
p369
g159
sS'self'
p370
S'<gluon.html.TBODY object>'
p371
sS'co'
p372
g159
sS'self._xml'
p373
S'<bound method TBODY._xml of <gluon.html.TBODY object>>'
p374
ssg70
I966
sg71
(dp375
I961
S'    def xml(self):'
p376
sI962
S'        """'
p377
sI963
S'        generates the xml for this component.'
p378
sI964
S'        """'
p379
sI965
S''
sI966
S'        (fa, co) = self._xml()'
p380
sI967
S''
sI968
S'        if not self.tag:'
p381
sI969
S'            return co'
p382
sI970
S''
ssg83
S'(self=<gluon.html.TBODY object>)'
p383
sg85
g174
sa(dp384
g62
S'/home/tanguyl/Documents/projetPython/web2py/gluon/html.py'
p385
sg64
(dp386
S'self'
p387
S'<gluon.html.TBODY object>'
p388
sS'self.components'
p389
S'[<gluon.html.TR object>, <gluon.html.TR object>, <gluon.html.TR object>, <gluon.html.TR object>, <gluon.html.TR object>, <gluon.html.TR object>, <gluon.html.TR object>, <gluon.html.TR object>, <gluon.html.TR object>, <gluon.html.TR object>, <gluon.html.TR object>, <gluon.html.TR object>, <gluon.html.TR object>, <gluon.html.TR object>, <gluon.html.TR object>, <gluon.html.TR object>]'
p390
ssg70
I957
sg71
(dp391
I960
S''
sI961
S'    def xml(self):'
p392
sI952
S"        fa = ''"
p393
sI953
S'        for name, value in attr:'
p394
sI954
S'            fa += \' %s="%s"\' % (name, xmlescape(value, True))'
p395
sI955
S'        # get the xml for the inner components'
p396
sI956
S'        co = join([xmlescape(component) for component in'
p397
sI957
S'                   self.components])'
p398
sI958
S''
sI959
S'        return (fa, co)'
p399
ssg83
S'(self=<gluon.html.TBODY object>)'
p400
sg85
g192
sa(dp401
g62
S'/home/tanguyl/Documents/projetPython/web2py/gluon/html.py'
p402
sg64
(dp403
S'data'
p404
S'<gluon.html.TR object>'
p405
sS'data.xml'
p406
S'<bound method TR.xml of <gluon.html.TR object>>'
p407
ssg70
I131
sg71
(dp408
I128
S''
sI129
S'    # first try the xml function'
p409
sI130
S"    if hasattr(data, 'xml') and callable(data.xml):"
p410
sI131
S'        return data.xml()'
p411
sI132
S''
sI133
S'    # otherwise, make it a string'
p412
sI134
S'    if not isinstance(data, (str, unicode)):'
p413
sI135
S'        data = str(data)'
p414
sI126
S'        quote: optional (default False)'
p415
sI127
S'    """'
p416
ssg83
S'(data=<gluon.html.TR object>, quote=True)'
p417
sg85
g154
sa(dp418
g62
S'/home/tanguyl/Documents/projetPython/web2py/gluon/html.py'
p419
sg64
(dp420
S'fa'
p421
g159
sS'self'
p422
S'<gluon.html.TR object>'
p423
sS'co'
p424
g159
sS'self._xml'
p425
S'<bound method TR._xml of <gluon.html.TR object>>'
p426
ssg70
I966
sg71
(dp427
I961
S'    def xml(self):'
p428
sI962
S'        """'
p429
sI963
S'        generates the xml for this component.'
p430
sI964
S'        """'
p431
sI965
S''
sI966
S'        (fa, co) = self._xml()'
p432
sI967
S''
sI968
S'        if not self.tag:'
p433
sI969
S'            return co'
p434
sI970
S''
ssg83
S'(self=<gluon.html.TR object>)'
p435
sg85
g174
sa(dp436
g62
S'/home/tanguyl/Documents/projetPython/web2py/gluon/html.py'
p437
sg64
(dp438
S'self'
p439
S'<gluon.html.TR object>'
p440
sS'self.components'
p441
S'[<gluon.html.TD object>, <gluon.html.TD object>, <gluon.html.TD object>, <gluon.html.TD object>, <gluon.html.TD object>, <gluon.html.TD object>, <gluon.html.TD object>, <gluon.html.TD object>, <gluon.html.TD object>, <gluon.html.TD object>, <gluon.html.TD object>, <gluon.html.TD object>, <gluon.html.TD object>, <gluon.html.TD object>, <gluon.html.TD object>, <gluon.html.TD object>, <gluon.html.TD object>, <gluon.html.TD object>]'
p442
ssg70
I957
sg71
(dp443
I960
S''
sI961
S'    def xml(self):'
p444
sI952
S"        fa = ''"
p445
sI953
S'        for name, value in attr:'
p446
sI954
S'            fa += \' %s="%s"\' % (name, xmlescape(value, True))'
p447
sI955
S'        # get the xml for the inner components'
p448
sI956
S'        co = join([xmlescape(component) for component in'
p449
sI957
S'                   self.components])'
p450
sI958
S''
sI959
S'        return (fa, co)'
p451
ssg83
S'(self=<gluon.html.TR object>)'
p452
sg85
g192
sa(dp453
g62
S'/home/tanguyl/Documents/projetPython/web2py/gluon/html.py'
p454
sg64
(dp455
S'data'
p456
S'<gluon.html.TD object>'
p457
sS'data.xml'
p458
S'<bound method TD.xml of <gluon.html.TD object>>'
p459
ssg70
I131
sg71
(dp460
I128
S''
sI129
S'    # first try the xml function'
p461
sI130
S"    if hasattr(data, 'xml') and callable(data.xml):"
p462
sI131
S'        return data.xml()'
p463
sI132
S''
sI133
S'    # otherwise, make it a string'
p464
sI134
S'    if not isinstance(data, (str, unicode)):'
p465
sI135
S'        data = str(data)'
p466
sI126
S'        quote: optional (default False)'
p467
sI127
S'    """'
p468
ssg83
S'(data=<gluon.html.TD object>, quote=True)'
p469
sg85
g154
sa(dp470
g62
S'/home/tanguyl/Documents/projetPython/web2py/gluon/html.py'
p471
sg64
(dp472
S'fa'
p473
g159
sS'self'
p474
S'<gluon.html.TD object>'
p475
sS'co'
p476
g159
sS'self._xml'
p477
S'<bound method TD._xml of <gluon.html.TD object>>'
p478
ssg70
I966
sg71
(dp479
I961
S'    def xml(self):'
p480
sI962
S'        """'
p481
sI963
S'        generates the xml for this component.'
p482
sI964
S'        """'
p483
sI965
S''
sI966
S'        (fa, co) = self._xml()'
p484
sI967
S''
sI968
S'        if not self.tag:'
p485
sI969
S'            return co'
p486
sI970
S''
ssg83
S'(self=<gluon.html.TD object>)'
p487
sg85
g174
sa(dp488
g62
S'/home/tanguyl/Documents/projetPython/web2py/gluon/html.py'
p489
sg64
(dp490
S'self'
p491
S'<gluon.html.TD object>'
p492
sS'self.components'
p493
S'[<Rows (6)>]'
p494
ssg70
I957
sg71
(dp495
I960
S''
sI961
S'    def xml(self):'
p496
sI952
S"        fa = ''"
p497
sI953
S'        for name, value in attr:'
p498
sI954
S'            fa += \' %s="%s"\' % (name, xmlescape(value, True))'
p499
sI955
S'        # get the xml for the inner components'
p500
sI956
S'        co = join([xmlescape(component) for component in'
p501
sI957
S'                   self.components])'
p502
sI958
S''
sI959
S'        return (fa, co)'
p503
ssg83
S'(self=<gluon.html.TD object>)'
p504
sg85
g192
sa(dp505
g62
S'/home/tanguyl/Documents/projetPython/web2py/gluon/html.py'
p506
sg64
(dp507
S'data'
p508
S'<Rows (6)>'
p509
sS'data.xml'
p510
S'<bound method Rows.xml of <Rows (6)>>'
p511
ssg70
I131
sg71
(dp512
I128
S''
sI129
S'    # first try the xml function'
p513
sI130
S"    if hasattr(data, 'xml') and callable(data.xml):"
p514
sI131
S'        return data.xml()'
p515
sI132
S''
sI133
S'    # otherwise, make it a string'
p516
sI134
S'    if not isinstance(data, (str, unicode)):'
p517
sI135
S'        data = str(data)'
p518
sI126
S'        quote: optional (default False)'
p519
sI127
S'    """'
p520
ssg83
S'(data=<Rows (6)>, quote=True)'
p521
sg85
g154
sa(dp522
g62
S'/home/tanguyl/Documents/projetPython/web2py/gluon/packages/dal/pydal/objects.py'
p523
sg64
(dp524
S'strict'
p525
S'False'
p526
sS'self'
p527
S'<Rows (6)>'
p528
sS'self.db'
p529
g159
ssg70
I2330
sg71
(dp530
I2325
S''
sI2326
S"    def xml(self, strict=False, row_name='row', rows_name='rows'):"
p531
sI2327
S'        """'
p532
sI2328
S'        Serializes the table using sqlhtml.SQLTABLE (if present)'
p533
sI2329
S'        """'
p534
sI2330
S"        if not strict and not self.db.has_representer('rows_xml'):"
p535
sI2331
S'            strict = True'
p536
sI2332
S''
sI2333
S'        if strict:'
p537
sI2334
S"            return '<%s>\\n%s\\n</%s>' % ("
p538
ssg83
S"(self=<Rows (6)>, strict=False, row_name='row', rows_name='rows')"
p539
sg85
g174
sasS'pyver'
p540
S'Python 2.7.3: /usr/bin/python (prefix: /usr)'
p541
sS'session'
p542
g57
(S's\x1a\x00\x00\x00<div><table></table></div>'
tRp543
sS'etype'
p544
S"<type 'exceptions.AttributeError'>"
p545
sS'date'
p546
S'Wed Apr 20 14:37:39 2016'
p547
sS'response'
p548
g57
(S's\xec\x1e\x00\x00<div><table><tr><td style="font-weight:bold;vertical-align:top;">body</td><td style="vertical-align:top;">:</td><td><div>&lt;cStringIO.StringO object at 0x43fcdf8&gt;</div></td></tr><tr><td style="font-weight:bold;vertical-align:top;">cookies</td><td style="vertical-align:top;">:</td><td><div><table><tr><td style="font-weight:bold;vertical-align:top;">session_id_template</td><td style="vertical-align:top;">:</td><td><div>127.0.0.1-bb0754ae-4de9-47f8-8b98-1eb2452b29d8<table><tr><td style="font-weight:bold;vertical-align:top;">comment</td><td style="vertical-align:top;">:</td><td><div></div></td></tr><tr><td style="font-weight:bold;vertical-align:top;">domain</td><td style="vertical-align:top;">:</td><td><div></div></td></tr><tr><td style="font-weight:bold;vertical-align:top;">expires</td><td style="vertical-align:top;">:</td><td><div></div></td></tr><tr><td style="font-weight:bold;vertical-align:top;">httponly</td><td style="vertical-align:top;">:</td><td><div></div></td></tr><tr><td style="font-weight:bold;vertical-align:top;">max-age</td><td style="vertical-align:top;">:</td><td><div></div></td></tr><tr><td style="font-weight:bold;vertical-align:top;">path</td><td style="vertical-align:top;">:</td><td><div>/</div></td></tr><tr><td style="font-weight:bold;vertical-align:top;">secure</td><td style="vertical-align:top;">:</td><td><div></div></td></tr><tr><td style="font-weight:bold;vertical-align:top;">version</td><td style="vertical-align:top;">:</td><td><div></div></td></tr></table></div></td></tr></table></div></td></tr><tr><td style="font-weight:bold;vertical-align:top;">delimiters</td><td style="vertical-align:top;">:</td><td><div><table><tr><td><div>{{</div></td></tr><tr><td><div>}}</div></td></tr></table></div></td></tr><tr><td style="font-weight:bold;vertical-align:top;">files</td><td style="vertical-align:top;">:</td><td><div><table><tr><td><div>/TEMPLATE/static/js/jquery.js</div></td></tr><tr><td><div>/TEMPLATE/static/css/calendar.css</div></td></tr><tr><td><div>/TEMPLATE/static/js/calendar.js</div></td></tr><tr><td><div>/TEMPLATE/static/js/web2py.js</div></td></tr></table></div></td></tr><tr><td style="font-weight:bold;vertical-align:top;">flash</td><td style="vertical-align:top;">:</td><td><div></div></td></tr><tr><td style="font-weight:bold;vertical-align:top;">form_label_separator</td><td style="vertical-align:top;">:</td><td><div></div></td></tr><tr><td style="font-weight:bold;vertical-align:top;">formstyle</td><td style="vertical-align:top;">:</td><td><div>bootstrap3_inline</div></td></tr><tr><td style="font-weight:bold;vertical-align:top;">generic_patterns</td><td style="vertical-align:top;">:</td><td><div><table><tr><td><div>*</div></td></tr></table></div></td></tr><tr><td style="font-weight:bold;vertical-align:top;">google_analytics_id</td><td style="vertical-align:top;">:</td><td><div>None</div></td></tr><tr><td style="font-weight:bold;vertical-align:top;">headers</td><td style="vertical-align:top;">:</td><td><div><table><tr><td style="font-weight:bold;vertical-align:top;">X-Powered-By</td><td style="vertical-align:top;">:</td><td><div>web2py</div></td></tr></table></div></td></tr><tr><td style="font-weight:bold;vertical-align:top;">logo</td><td style="vertical-align:top;">:</td><td><div><a class="navbar-brand" href="http://intraiins.u-bordeaux2.fr/" id="web2py-logo"><b>IINS</b>&trade;&nbsp;</a></div></td></tr><tr><td style="font-weight:bold;vertical-align:top;">menu</td><td style="vertical-align:top;">:</td><td><div><table><tr><td><div><table><tr><td><div>Admin</div></td></tr><tr><td><div>False</div></td></tr><tr><td><div>/admin</div></td></tr><tr><td><div><table></table></div></td></tr></table></div></td></tr><tr><td><div><table><tr><td><div>Main</div></td></tr><tr><td><div>False</div></td></tr><tr><td><div>/main</div></td></tr></table></div></td></tr></table></div></td></tr><tr><td style="font-weight:bold;vertical-align:top;">meta</td><td style="vertical-align:top;">:</td><td><div><table><tr><td style="font-weight:bold;vertical-align:top;">author</td><td style="vertical-align:top;">:</td><td><div>Chambon Laurent&lt;Laurent.chambon@u-bordeaux.fr&gt;Jourde Tanguy&lt;tanguy.jourde@etu.u-bordeaux.fr&gt;</div></td></tr><tr><td style="font-weight:bold;vertical-align:top;">description</td><td style="vertical-align:top;">:</td><td><div>a cool new App</div></td></tr><tr><td style="font-weight:bold;vertical-align:top;">generator</td><td style="vertical-align:top;">:</td><td><div>Web2py Web Framework</div></td></tr><tr><td style="font-weight:bold;vertical-align:top;">keywords</td><td style="vertical-align:top;">:</td><td><div>manage products</div></td></tr></table></div></td></tr><tr><td style="font-weight:bold;vertical-align:top;">models_to_run</td><td style="vertical-align:top;">:</td><td><div><table><tr><td><div>^\\w+\\.py$</div></td></tr><tr><td><div>^default/\\w+\\.py$</div></td></tr><tr><td><div>^default/main/\\w+\\.py$</div></td></tr></table></div></td></tr><tr><td style="font-weight:bold;vertical-align:top;">postprocessing</td><td style="vertical-align:top;">:</td><td><div><table></table></div></td></tr><tr><td style="font-weight:bold;vertical-align:top;">session_client</td><td style="vertical-align:top;">:</td><td><div>127.0.0.1</div></td></tr><tr><td style="font-weight:bold;vertical-align:top;">session_cookie_compression_level</td><td style="vertical-align:top;">:</td><td><div>None</div></td></tr><tr><td style="font-weight:bold;vertical-align:top;">session_cookie_expires</td><td style="vertical-align:top;">:</td><td><div>None</div></td></tr><tr><td style="font-weight:bold;vertical-align:top;">session_data_name</td><td style="vertical-align:top;">:</td><td><div>session_data_template</div></td></tr><tr><td style="font-weight:bold;vertical-align:top;">session_file</td><td style="vertical-align:top;">:</td><td><div>&lt;open file &#x27;/home/tanguyl/Documents/projetPython/web2py/applications/TEMPLATE/sessions/0fc/118/127.0.0.1-bb0754ae-4de9-47f8-8b98-1eb2452b29d8&#x27;, mode &#x27;rb+&#x27; at 0x3aa4b70&gt;</div></td></tr><tr><td style="font-weight:bold;vertical-align:top;">session_filename</td><td style="vertical-align:top;">:</td><td><div>/home/tanguyl/Documents/projetPython/web2py/applications/TEMPLATE/sessions/127.0.0.1-bb0754ae-4de9-47f8-8b98-1eb2452b29d8</div></td></tr><tr><td style="font-weight:bold;vertical-align:top;">session_hash</td><td style="vertical-align:top;">:</td><td><div>0997593284130ea06b65ab6d051c8a14</div></td></tr><tr><td style="font-weight:bold;vertical-align:top;">session_id</td><td style="vertical-align:top;">:</td><td><div>127.0.0.1-bb0754ae-4de9-47f8-8b98-1eb2452b29d8</div></td></tr><tr><td style="font-weight:bold;vertical-align:top;">session_id_name</td><td style="vertical-align:top;">:</td><td><div>session_id_template</div></td></tr><tr><td style="font-weight:bold;vertical-align:top;">session_locked</td><td style="vertical-align:top;">:</td><td><div>True</div></td></tr><tr><td style="font-weight:bold;vertical-align:top;">session_masterapp</td><td style="vertical-align:top;">:</td><td><div>TEMPLATE</div></td></tr><tr><td style="font-weight:bold;vertical-align:top;">session_new</td><td style="vertical-align:top;">:</td><td><div>False</div></td></tr><tr><td style="font-weight:bold;vertical-align:top;">session_storage_type</td><td style="vertical-align:top;">:</td><td><div>file</div></td></tr><tr><td style="font-weight:bold;vertical-align:top;">status</td><td style="vertical-align:top;">:</td><td><div>200</div></td></tr><tr><td style="font-weight:bold;vertical-align:top;">subtitle</td><td style="vertical-align:top;">:</td><td><div></div></td></tr><tr><td style="font-weight:bold;vertical-align:top;">title</td><td style="vertical-align:top;">:</td><td><div>Template</div></td></tr><tr><td style="font-weight:bold;vertical-align:top;">view</td><td style="vertical-align:top;">:</td><td><div>default/main.html</div></td></tr></table></div>'
tRp549
sS'locals'
p550
(dp551
S'strict'
p552
g526
sS'self'
p553
S'<Rows (6)>'
p554
sS'rows_name'
p555
S"'rows'"
p556
sS'row_name'
p557
S"'row'"
p558
sssS'traceback'
p559
S'Traceback (most recent call last):\n  File "/home/tanguyl/Documents/projetPython/web2py/gluon/restricted.py", line 227, in restricted\n    exec ccode in environment\n  File "/home/tanguyl/Documents/projetPython/web2py/applications/TEMPLATE/views/default/main.html", line 107, in <module>\n  File "/home/tanguyl/Documents/projetPython/web2py/gluon/globals.py", line 430, in write\n    self.body.write(xmlescape(data))\n  File "/home/tanguyl/Documents/projetPython/web2py/gluon/html.py", line 131, in xmlescape\n    return data.xml()\n  File "/home/tanguyl/Documents/projetPython/web2py/gluon/html.py", line 966, in xml\n    (fa, co) = self._xml()\n  File "/home/tanguyl/Documents/projetPython/web2py/gluon/html.py", line 957, in _xml\n    self.components])\n  File "/home/tanguyl/Documents/projetPython/web2py/gluon/html.py", line 131, in xmlescape\n    return data.xml()\n  File "/home/tanguyl/Documents/projetPython/web2py/gluon/html.py", line 966, in xml\n    (fa, co) = self._xml()\n  File "/home/tanguyl/Documents/projetPython/web2py/gluon/html.py", line 957, in _xml\n    self.components])\n  File "/home/tanguyl/Documents/projetPython/web2py/gluon/html.py", line 131, in xmlescape\n    return data.xml()\n  File "/home/tanguyl/Documents/projetPython/web2py/gluon/html.py", line 966, in xml\n    (fa, co) = self._xml()\n  File "/home/tanguyl/Documents/projetPython/web2py/gluon/html.py", line 957, in _xml\n    self.components])\n  File "/home/tanguyl/Documents/projetPython/web2py/gluon/html.py", line 131, in xmlescape\n    return data.xml()\n  File "/home/tanguyl/Documents/projetPython/web2py/gluon/html.py", line 966, in xml\n    (fa, co) = self._xml()\n  File "/home/tanguyl/Documents/projetPython/web2py/gluon/html.py", line 957, in _xml\n    self.components])\n  File "/home/tanguyl/Documents/projetPython/web2py/gluon/html.py", line 131, in xmlescape\n    return data.xml()\n  File "/home/tanguyl/Documents/projetPython/web2py/gluon/html.py", line 966, in xml\n    (fa, co) = self._xml()\n  File "/home/tanguyl/Documents/projetPython/web2py/gluon/html.py", line 957, in _xml\n    self.components])\n  File "/home/tanguyl/Documents/projetPython/web2py/gluon/html.py", line 131, in xmlescape\n    return data.xml()\n  File "/home/tanguyl/Documents/projetPython/web2py/gluon/html.py", line 966, in xml\n    (fa, co) = self._xml()\n  File "/home/tanguyl/Documents/projetPython/web2py/gluon/html.py", line 957, in _xml\n    self.components])\n  File "/home/tanguyl/Documents/projetPython/web2py/gluon/html.py", line 131, in xmlescape\n    return data.xml()\n  File "/home/tanguyl/Documents/projetPython/web2py/gluon/html.py", line 966, in xml\n    (fa, co) = self._xml()\n  File "/home/tanguyl/Documents/projetPython/web2py/gluon/html.py", line 957, in _xml\n    self.components])\n  File "/home/tanguyl/Documents/projetPython/web2py/gluon/html.py", line 131, in xmlescape\n    return data.xml()\n  File "/home/tanguyl/Documents/projetPython/web2py/gluon/packages/dal/pydal/objects.py", line 2330, in xml\n    if not strict and not self.db.has_representer(\'rows_xml\'):\nAttributeError: \'Rows\' object has no attribute \'db\'\n'
p560
s.