(dp1
S'output'
p2
S"<type 'exceptions.TypeError'> boo() takes exactly 1 argument (2 given)"
p3
sS'layer'
p4
S'/home/tanguyl/Documents/projetPython/web2py/applications/TEMPLATE/controllers/default.py'
p5
sS'code'
p6
S'# -*- coding: utf-8 -*-\nimport sys,subprocess\n# this file is released under public domain and you can use without limitations\n#########################################################################\n## This is a sample controller\n## - index is the default action of any application\n## - user is required for authentication and authorization\n## - download is for downloading files uploaded in the db (does streaming)\n#########################################################################\n\n#requires login\ndef main():\n    db = getDb()\n    table = getTable(db)#in db.py,from script.py\n    db.Produits_chimiques.Nom_anglais.represent = boo\n    rows = db(table).select()\n    if (len(rows) == 0):\n        initData()\n    form = forming(table)\n    #records=SQLFORM.grid(table,left=db.Conseils_de_prudence.on(db.Conseils_de_prudence.Codes == table.Conseils_de_prudence))\n    #records=SQLFORM.smartgrid(table,linked_tables=[\'Conseils_de_prudence\'],editable=True)\n    records=SQLFORM.grid(table)\n    return dict(form=form, records=records)\n\ndef index():\n    return response.render()\n\n\ndef user():\n    """\n    exposes:\n    http://..../[app]/default/user/login\n    http://..../[app]/default/user/logout\n    http://..../[app]/default/user/register\n    http://..../[app]/default/user/profile\n    http://..../[app]/default/user/retrieve_password\n    http://..../[app]/default/user/change_password\n    http://..../[app]/default/user/manage_users (requires membership in\n    use @auth.requires_login()\n        @auth.requires_membership(\'group name\')\n        @auth.requires_permission(\'read\',\'table name\',record_id)\n    to decorate functions that need access control\n    """\n    return dict(form=auth())\n\n\n@cache.action()\ndef download():\n    """\n    allows downloading of uploaded files\n    http://..../[app]/default/download/[filename]\n    """\n    return response.download(request, db)\n\n\ndef call():\n    """\n    exposes services. for example:\n    http://..../[app]/default/call/jsonrpc\n    decorate with @services.jsonrpc the functions to expose\n    supports xml, json, xmlrpc, jsonrpc, amfrpc, rss, csv\n    """\n    return service()\ndef forming(table):\n    form = SQLFORM(table)\n    if form.process().accepted:\n        response.falsh = \'form accepted\'\n    elif form.errors:\n        response.flash = \'form has errors\'\n    return form\n\ndef initData():\n    from subprocess import check_call\n    try:\n        subprocess.check_call(["python","/home/tanguyl/Documents/projetPython/scriptInit.py","/home/tanguyl/Documents/projetPython/Inventaireproduitschimiques.xlsx"])\n    except subprocess.CalledProcessError:\n        sys.exit("Une erreur vient de se produire : scriptInit.py est-il pr\xc3\xa9sent?")\n\nresponse._vars=response._caller(main)\n'
p7
sS'snapshot'
p8
(dp9
S'exception'
p10
(dp11
S'__hash__'
p12
S"<method-wrapper '__hash__' of exceptions.TypeError object>"
p13
sS'__setattr__'
p14
S"<method-wrapper '__setattr__' of exceptions.TypeError object>"
p15
sS'__reduce_ex__'
p16
S'<built-in method __reduce_ex__ of exceptions.TypeError object>'
p17
sS'__getslice__'
p18
S"<method-wrapper '__getslice__' of exceptions.TypeError object>"
p19
sS'__getitem__'
p20
S"<method-wrapper '__getitem__' of exceptions.TypeError object>"
p21
sS'__setstate__'
p22
S'<built-in method __setstate__ of exceptions.TypeError object>'
p23
sS'args'
p24
S"('boo() takes exactly 1 argument (2 given)',)"
p25
sS'__reduce__'
p26
S'<built-in method __reduce__ of exceptions.TypeError object>'
p27
sS'__str__'
p28
S"<method-wrapper '__str__' of exceptions.TypeError object>"
p29
sS'__format__'
p30
S'<built-in method __format__ of exceptions.TypeError object>'
p31
sS'__getattribute__'
p32
S"<method-wrapper '__getattribute__' of exceptions.TypeError object>"
p33
sS'__class__'
p34
S"<type 'exceptions.TypeError'>"
p35
sS'__unicode__'
p36
S'<built-in method __unicode__ of exceptions.TypeError object>'
p37
sS'__delattr__'
p38
S"<method-wrapper '__delattr__' of exceptions.TypeError object>"
p39
sS'__subclasshook__'
p40
S'<built-in method __subclasshook__ of type object>'
p41
sS'__repr__'
p42
S"<method-wrapper '__repr__' of exceptions.TypeError object>"
p43
sS'__dict__'
p44
S'{}'
p45
sS'__sizeof__'
p46
S'<built-in method __sizeof__ of exceptions.TypeError object>'
p47
sS'__doc__'
p48
S"'Inappropriate argument type.'"
p49
sS'__init__'
p50
S"<method-wrapper '__init__' of exceptions.TypeError object>"
p51
sS'__new__'
p52
S'<built-in method __new__ of type object>'
p53
ssS'evalue'
p54
S'boo() takes exactly 1 argument (2 given)'
p55
sS'request'
p56
cgluon.html
XML_unpickle
p57
(S's1U\x00\x00<div><table><tr><td style="font-weight:bold;vertical-align:top;">ajax</td><td style="vertical-align:top;">:</td><td><div>False</div></td></tr><tr><td style="font-weight:bold;vertical-align:top;">application</td><td style="vertical-align:top;">:</td><td><div>TEMPLATE</div></td></tr><tr><td style="font-weight:bold;vertical-align:top;">args</td><td style="vertical-align:top;">:</td><td><div><table></table></div></td></tr><tr><td style="font-weight:bold;vertical-align:top;">cid</td><td style="vertical-align:top;">:</td><td><div>None</div></td></tr><tr><td style="font-weight:bold;vertical-align:top;">client</td><td style="vertical-align:top;">:</td><td><div>127.0.0.1</div></td></tr><tr><td style="font-weight:bold;vertical-align:top;">controller</td><td style="vertical-align:top;">:</td><td><div>default</div></td></tr><tr><td style="font-weight:bold;vertical-align:top;">cookies</td><td style="vertical-align:top;">:</td><td><div><table><tr><td style="font-weight:bold;vertical-align:top;">session_id_admin</td><td style="vertical-align:top;">:</td><td><div>127.0.0.1-d7ce76d5-c192-4c6d-bab1-b0ba33d28e54<table><tr><td style="font-weight:bold;vertical-align:top;">comment</td><td style="vertical-align:top;">:</td><td><div></div></td></tr><tr><td style="font-weight:bold;vertical-align:top;">domain</td><td style="vertical-align:top;">:</td><td><div></div></td></tr><tr><td style="font-weight:bold;vertical-align:top;">expires</td><td style="vertical-align:top;">:</td><td><div></div></td></tr><tr><td style="font-weight:bold;vertical-align:top;">httponly</td><td style="vertical-align:top;">:</td><td><div></div></td></tr><tr><td style="font-weight:bold;vertical-align:top;">max-age</td><td style="vertical-align:top;">:</td><td><div></div></td></tr><tr><td style="font-weight:bold;vertical-align:top;">path</td><td style="vertical-align:top;">:</td><td><div></div></td></tr><tr><td style="font-weight:bold;vertical-align:top;">secure</td><td style="vertical-align:top;">:</td><td><div></div></td></tr><tr><td style="font-weight:bold;vertical-align:top;">version</td><td style="vertical-align:top;">:</td><td><div></div></td></tr></table></div></td></tr><tr><td style="font-weight:bold;vertical-align:top;">session_id_template</td><td style="vertical-align:top;">:</td><td><div>127.0.0.1-bb0754ae-4de9-47f8-8b98-1eb2452b29d8<table><tr><td style="font-weight:bold;vertical-align:top;">comment</td><td style="vertical-align:top;">:</td><td><div></div></td></tr><tr><td style="font-weight:bold;vertical-align:top;">domain</td><td style="vertical-align:top;">:</td><td><div></div></td></tr><tr><td style="font-weight:bold;vertical-align:top;">expires</td><td style="vertical-align:top;">:</td><td><div></div></td></tr><tr><td style="font-weight:bold;vertical-align:top;">httponly</td><td style="vertical-align:top;">:</td><td><div></div></td></tr><tr><td style="font-weight:bold;vertical-align:top;">max-age</td><td style="vertical-align:top;">:</td><td><div></div></td></tr><tr><td style="font-weight:bold;vertical-align:top;">path</td><td style="vertical-align:top;">:</td><td><div></div></td></tr><tr><td style="font-weight:bold;vertical-align:top;">secure</td><td style="vertical-align:top;">:</td><td><div></div></td></tr><tr><td style="font-weight:bold;vertical-align:top;">version</td><td style="vertical-align:top;">:</td><td><div></div></td></tr></table></div></td></tr></table></div></td></tr><tr><td style="font-weight:bold;vertical-align:top;">env</td><td style="vertical-align:top;">:</td><td><div><table><tr><td style="font-weight:bold;vertical-align:top;">HTTP_ACCEPT</td><td style="vertical-align:top;">:</td><td><div>text/html,application/xhtml+xml,application/xml;q=0.9,*/*;q=0.8</div></td></tr><tr><td style="font-weight:bold;vertical-align:top;">HTTP_ACCEPT_ENCODING</td><td style="vertical-align:top;">:</td><td><div>gzip, deflate</div></td></tr><tr><td style="font-weight:bold;vertical-align:top;">HTTP_ACCEPT_LANGUAGE</td><td style="vertical-align:top;">:</td><td><div>fr,fr-FR;q=0.8,en-US;q=0.5,en;q=0.3</div></td></tr><tr><td style="font-weight:bold;vertical-align:top;">HTTP_CACHE_CONTROL</td><td style="vertical-align:top;">:</td><td><div>max-age=0</div></td></tr><tr><td style="font-weight:bold;vertical-align:top;">HTTP_CONNECTION</td><td style="vertical-align:top;">:</td><td><div>keep-alive</div></td></tr><tr><td style="font-weight:bold;vertical-align:top;">HTTP_COOKIE</td><td style="vertical-align:top;">:</td><td><div>session_id_template=127.0.0.1-bb0754ae-4de9-47f8-8b98-1eb2452b29d8; session_id_admin=127.0.0.1-d7ce76d5-c192-4c6d-bab1-b0ba33d28e54</div></td></tr><tr><td style="font-weight:bold;vertical-align:top;">HTTP_HOST</td><td style="vertical-align:top;">:</td><td><div>127.0.0.1:8000</div></td></tr><tr><td style="font-weight:bold;vertical-align:top;">HTTP_REFERER</td><td style="vertical-align:top;">:</td><td><div>http://127.0.0.1:8000/</div></td></tr><tr><td style="font-weight:bold;vertical-align:top;">HTTP_USER_AGENT</td><td style="vertical-align:top;">:</td><td><div>Mozilla/5.0 (X11; Linux x86_64; rv:38.0) Gecko/20100101 Firefox/38.0 Iceweasel/38.7.1</div></td></tr><tr><td style="font-weight:bold;vertical-align:top;">PATH_INFO</td><td style="vertical-align:top;">:</td><td><div>/main</div></td></tr><tr><td style="font-weight:bold;vertical-align:top;">QUERY_STRING</td><td style="vertical-align:top;">:</td><td><div></div></td></tr><tr><td style="font-weight:bold;vertical-align:top;">REMOTE_ADDR</td><td style="vertical-align:top;">:</td><td><div>127.0.0.1</div></td></tr><tr><td style="font-weight:bold;vertical-align:top;">REMOTE_PORT</td><td style="vertical-align:top;">:</td><td><div>39107</div></td></tr><tr><td style="font-weight:bold;vertical-align:top;">REQUEST_METHOD</td><td style="vertical-align:top;">:</td><td><div>GET</div></td></tr><tr><td style="font-weight:bold;vertical-align:top;">SCRIPT_NAME</td><td style="vertical-align:top;">:</td><td><div></div></td></tr><tr><td style="font-weight:bold;vertical-align:top;">SERVER_NAME</td><td style="vertical-align:top;">:</td><td><div>debian</div></td></tr><tr><td style="font-weight:bold;vertical-align:top;">SERVER_PORT</td><td style="vertical-align:top;">:</td><td><div>8000</div></td></tr><tr><td style="font-weight:bold;vertical-align:top;">SERVER_PROTOCOL</td><td style="vertical-align:top;">:</td><td><div>HTTP/1.1</div></td></tr><tr><td style="font-weight:bold;vertical-align:top;">SERVER_SOFTWARE</td><td style="vertical-align:top;">:</td><td><div>Rocket 1.2.6</div></td></tr><tr><td style="font-weight:bold;vertical-align:top;">app_folders</td><td style="vertical-align:top;">:</td><td><div>set([&#x27;/home/tanguyl/Documents/projetPython/web2py/applications/admin/&#x27;, &#x27;/home/tanguyl/Documents/projetPython/web2py/applications/TEMPLATE/&#x27;])</div></td></tr><tr><td style="font-weight:bold;vertical-align:top;">applications_parent</td><td style="vertical-align:top;">:</td><td><div>/home/tanguyl/Documents/projetPython/web2py</div></td></tr><tr><td style="font-weight:bold;vertical-align:top;">cmd_args</td><td style="vertical-align:top;">:</td><td><div><table></table></div></td></tr><tr><td style="font-weight:bold;vertical-align:top;">cmd_options</td><td style="vertical-align:top;">:</td><td><div>&lt;Values at 0x2963cb0: {&#x27;verbose&#x27;: False, &#x27;ip&#x27;: &#x27;127.0.0.1&#x27;, &#x27;debuglevel&#x27;: 30, &#x27;with_scheduler&#x27;: False, &#x27;shutdown_timeout&#x27;: 5, &#x27;taskbar&#x27;: False, &#x27;with_coverage&#x27;: False, &#x27;pid_filename&#x27;: &#x27;httpserver.pid&#x27;, &#x27;maxthreads&#x27;: None, &#x27;softcron&#x27;: False, &#x27;server_name&#x27;: &#x27;debian&#x27;, &#x27;bpython&#x27;: False, &#x27;nogui&#x27;: False, &#x27;port&#x27;: 8000, &#x27;print_errors&#x27;: False, &#x27;extcron&#x27;: False, &#x27;runcron&#x27;: False, &#x27;run_system_tests&#x27;: False, &#x27;test&#x27;: None, &#x27;folder&#x27;: &#x27;/home/tanguyl/Documents/projetPython/web2py&#x27;, &#x27;config&#x27;: &#x27;&#x27;, &#x27;minthreads&#x27;: None, &#x27;shell&#x27;: None, &#x27;run&#x27;: &#x27;&#x27;, &#x27;log_filename&#x27;: &#x27;httpserver.log&#x27;, &#x27;profiler_dir&#x27;: None, &#x27;args&#x27;: [&#x27;&#x27;], &#x27;socket_timeout&#x27;: 5, &#x27;ssl_ca_certificate&#x27;: None, &#x27;scheduler&#x27;: None, &#x27;interfaces&#x27;: None, &#x27;ssl_private_key&#x27;: &#x27;&#x27;, &#x27;gae&#x27;: None, &#x27;password&#x27;: &#x27;******&#x27;, &#x27;request_queue_size&#x27;: 5, &#x27;ssl_certificate&#x27;: &#x27;&#x27;, &#x27;cronjob&#x27;: False, &#x27;numthreads&#x27;: None, &#x27;quiet&#x27;: False, &#x27;import_models&#x27;: False, &#x27;timeout&#x27;: 10, &#x27;plain&#x27;: False, &#x27;nobanner&#x27;: False}&gt;</div></td></tr><tr><td style="font-weight:bold;vertical-align:top;">db_sessions</td><td style="vertical-align:top;">:</td><td><div>set([])</div></td></tr><tr><td style="font-weight:bold;vertical-align:top;">debugging</td><td style="vertical-align:top;">:</td><td><div>False</div></td></tr><tr><td style="font-weight:bold;vertical-align:top;">gluon_parent</td><td style="vertical-align:top;">:</td><td><div>/home/tanguyl/Documents/projetPython/web2py</div></td></tr><tr><td style="font-weight:bold;vertical-align:top;">http_accept</td><td style="vertical-align:top;">:</td><td><div>text/html,application/xhtml+xml,application/xml;q=0.9,*/*;q=0.8</div></td></tr><tr><td style="font-weight:bold;vertical-align:top;">http_accept_encoding</td><td style="vertical-align:top;">:</td><td><div>gzip, deflate</div></td></tr><tr><td style="font-weight:bold;vertical-align:top;">http_accept_language</td><td style="vertical-align:top;">:</td><td><div>fr,fr-FR;q=0.8,en-US;q=0.5,en;q=0.3</div></td></tr><tr><td style="font-weight:bold;vertical-align:top;">http_cache_control</td><td style="vertical-align:top;">:</td><td><div>max-age=0</div></td></tr><tr><td style="font-weight:bold;vertical-align:top;">http_connection</td><td style="vertical-align:top;">:</td><td><div>keep-alive</div></td></tr><tr><td style="font-weight:bold;vertical-align:top;">http_cookie</td><td style="vertical-align:top;">:</td><td><div>session_id_template=127.0.0.1-bb0754ae-4de9-47f8-8b98-1eb2452b29d8; session_id_admin=127.0.0.1-d7ce76d5-c192-4c6d-bab1-b0ba33d28e54</div></td></tr><tr><td style="font-weight:bold;vertical-align:top;">http_host</td><td style="vertical-align:top;">:</td><td><div>127.0.0.1:8000</div></td></tr><tr><td style="font-weight:bold;vertical-align:top;">http_referer</td><td style="vertical-align:top;">:</td><td><div>http://127.0.0.1:8000/</div></td></tr><tr><td style="font-weight:bold;vertical-align:top;">http_user_agent</td><td style="vertical-align:top;">:</td><td><div>Mozilla/5.0 (X11; Linux x86_64; rv:38.0) Gecko/20100101 Firefox/38.0 Iceweasel/38.7.1</div></td></tr><tr><td style="font-weight:bold;vertical-align:top;">is_jython</td><td style="vertical-align:top;">:</td><td><div>False</div></td></tr><tr><td style="font-weight:bold;vertical-align:top;">is_pypy</td><td style="vertical-align:top;">:</td><td><div>False</div></td></tr><tr><td style="font-weight:bold;vertical-align:top;">is_source</td><td style="vertical-align:top;">:</td><td><div>True</div></td></tr><tr><td style="font-weight:bold;vertical-align:top;">local_hosts</td><td style="vertical-align:top;">:</td><td><div><table><tr><td><div>::1</div></td></tr><tr><td><div>127.0.1.1</div></td></tr><tr><td><div>::ffff:127.0.0.1</div></td></tr><tr><td><div>127.0.0.1</div></td></tr><tr><td><div>debian</div></td></tr></table></div></td></tr><tr><td style="font-weight:bold;vertical-align:top;">path_info</td><td style="vertical-align:top;">:</td><td><div>/main</div></td></tr><tr><td style="font-weight:bold;vertical-align:top;">query_string</td><td style="vertical-align:top;">:</td><td><div></div></td></tr><tr><td style="font-weight:bold;vertical-align:top;">remote_addr</td><td style="vertical-align:top;">:</td><td><div>127.0.0.1</div></td></tr><tr><td style="font-weight:bold;vertical-align:top;">remote_port</td><td style="vertical-align:top;">:</td><td><div>39107</div></td></tr><tr><td style="font-weight:bold;vertical-align:top;">request_method</td><td style="vertical-align:top;">:</td><td><div>GET</div></td></tr><tr><td style="font-weight:bold;vertical-align:top;">request_uri</td><td style="vertical-align:top;">:</td><td><div>/TEMPLATE/default/main</div></td></tr><tr><td style="font-weight:bold;vertical-align:top;">script_name</td><td style="vertical-align:top;">:</td><td><div></div></td></tr><tr><td style="font-weight:bold;vertical-align:top;">server_name</td><td style="vertical-align:top;">:</td><td><div>debian</div></td></tr><tr><td style="font-weight:bold;vertical-align:top;">server_port</td><td style="vertical-align:top;">:</td><td><div>8000</div></td></tr><tr><td style="font-weight:bold;vertical-align:top;">server_protocol</td><td style="vertical-align:top;">:</td><td><div>HTTP/1.1</div></td></tr><tr><td style="font-weight:bold;vertical-align:top;">server_software</td><td style="vertical-align:top;">:</td><td><div>Rocket 1.2.6</div></td></tr><tr><td style="font-weight:bold;vertical-align:top;">web2py_original_uri</td><td style="vertical-align:top;">:</td><td><div>/main</div></td></tr><tr><td style="font-weight:bold;vertical-align:top;">web2py_path</td><td style="vertical-align:top;">:</td><td><div>/home/tanguyl/Documents/projetPython/web2py</div></td></tr><tr><td style="font-weight:bold;vertical-align:top;">web2py_version</td><td style="vertical-align:top;">:</td><td><div>2.14.3-stable+timestamp.2016.03.26.23.02.02</div></td></tr><tr><td style="font-weight:bold;vertical-align:top;">wsgi.errors</td><td style="vertical-align:top;">:</td><td><div>&lt;open file &#x27;&lt;stderr&gt;&#x27;, mode &#x27;w&#x27; at 0x7f7a9f670270&gt;</div></td></tr><tr><td style="font-weight:bold;vertical-align:top;">wsgi.file_wrapper</td><td style="vertical-align:top;">:</td><td><div>&lt;class wsgiref.util.FileWrapper at 0x28dab48&gt;</div></td></tr><tr><td style="font-weight:bold;vertical-align:top;">wsgi.input</td><td style="vertical-align:top;">:</td><td><div>&lt;socket._fileobject object at 0x4113850&gt;</div></td></tr><tr><td style="font-weight:bold;vertical-align:top;">wsgi.multiprocess</td><td style="vertical-align:top;">:</td><td><div>False</div></td></tr><tr><td style="font-weight:bold;vertical-align:top;">wsgi.multithread</td><td style="vertical-align:top;">:</td><td><div>True</div></td></tr><tr><td style="font-weight:bold;vertical-align:top;">wsgi.run_once</td><td style="vertical-align:top;">:</td><td><div>False</div></td></tr><tr><td style="font-weight:bold;vertical-align:top;">wsgi.url_scheme</td><td style="vertical-align:top;">:</td><td><div>http</div></td></tr><tr><td style="font-weight:bold;vertical-align:top;">wsgi.version</td><td style="vertical-align:top;">:</td><td><div><table><tr><td><div>1</div></td></tr><tr><td><div>0</div></td></tr></table></div></td></tr><tr><td style="font-weight:bold;vertical-align:top;">wsgi_errors</td><td style="vertical-align:top;">:</td><td><div>&lt;open file &#x27;&lt;stderr&gt;&#x27;, mode &#x27;w&#x27; at 0x7f7a9f670270&gt;</div></td></tr><tr><td style="font-weight:bold;vertical-align:top;">wsgi_file_wrapper</td><td style="vertical-align:top;">:</td><td><div>&lt;class wsgiref.util.FileWrapper at 0x28dab48&gt;</div></td></tr><tr><td style="font-weight:bold;vertical-align:top;">wsgi_input</td><td style="vertical-align:top;">:</td><td><div>&lt;socket._fileobject object at 0x4113850&gt;</div></td></tr><tr><td style="font-weight:bold;vertical-align:top;">wsgi_multiprocess</td><td style="vertical-align:top;">:</td><td><div>False</div></td></tr><tr><td style="font-weight:bold;vertical-align:top;">wsgi_multithread</td><td style="vertical-align:top;">:</td><td><div>True</div></td></tr><tr><td style="font-weight:bold;vertical-align:top;">wsgi_run_once</td><td style="vertical-align:top;">:</td><td><div>False</div></td></tr><tr><td style="font-weight:bold;vertical-align:top;">wsgi_url_scheme</td><td style="vertical-align:top;">:</td><td><div>http</div></td></tr><tr><td style="font-weight:bold;vertical-align:top;">wsgi_version</td><td style="vertical-align:top;">:</td><td><div><table><tr><td><div>1</div></td></tr><tr><td><div>0</div></td></tr></table></div></td></tr></table></div></td></tr><tr><td style="font-weight:bold;vertical-align:top;">extension</td><td style="vertical-align:top;">:</td><td><div>html</div></td></tr><tr><td style="font-weight:bold;vertical-align:top;">folder</td><td style="vertical-align:top;">:</td><td><div>/home/tanguyl/Documents/projetPython/web2py/applications/TEMPLATE/</div></td></tr><tr><td style="font-weight:bold;vertical-align:top;">function</td><td style="vertical-align:top;">:</td><td><div>main</div></td></tr><tr><td style="font-weight:bold;vertical-align:top;">global_settings</td><td style="vertical-align:top;">:</td><td><div><table><tr><td style="font-weight:bold;vertical-align:top;">app_folders</td><td style="vertical-align:top;">:</td><td><div>set([&#x27;/home/tanguyl/Documents/projetPython/web2py/applications/admin/&#x27;, &#x27;/home/tanguyl/Documents/projetPython/web2py/applications/TEMPLATE/&#x27;])</div></td></tr><tr><td style="font-weight:bold;vertical-align:top;">applications_parent</td><td style="vertical-align:top;">:</td><td><div>/home/tanguyl/Documents/projetPython/web2py</div></td></tr><tr><td style="font-weight:bold;vertical-align:top;">cmd_args</td><td style="vertical-align:top;">:</td><td><div><table></table></div></td></tr><tr><td style="font-weight:bold;vertical-align:top;">cmd_options</td><td style="vertical-align:top;">:</td><td><div>&lt;Values at 0x2963cb0: {&#x27;verbose&#x27;: False, &#x27;ip&#x27;: &#x27;127.0.0.1&#x27;, &#x27;debuglevel&#x27;: 30, &#x27;with_scheduler&#x27;: False, &#x27;shutdown_timeout&#x27;: 5, &#x27;taskbar&#x27;: False, &#x27;with_coverage&#x27;: False, &#x27;pid_filename&#x27;: &#x27;httpserver.pid&#x27;, &#x27;maxthreads&#x27;: None, &#x27;softcron&#x27;: False, &#x27;server_name&#x27;: &#x27;debian&#x27;, &#x27;bpython&#x27;: False, &#x27;nogui&#x27;: False, &#x27;port&#x27;: 8000, &#x27;print_errors&#x27;: False, &#x27;extcron&#x27;: False, &#x27;runcron&#x27;: False, &#x27;run_system_tests&#x27;: False, &#x27;test&#x27;: None, &#x27;folder&#x27;: &#x27;/home/tanguyl/Documents/projetPython/web2py&#x27;, &#x27;config&#x27;: &#x27;&#x27;, &#x27;minthreads&#x27;: None, &#x27;shell&#x27;: None, &#x27;run&#x27;: &#x27;&#x27;, &#x27;log_filename&#x27;: &#x27;httpserver.log&#x27;, &#x27;profiler_dir&#x27;: None, &#x27;args&#x27;: [&#x27;&#x27;], &#x27;socket_timeout&#x27;: 5, &#x27;ssl_ca_certificate&#x27;: None, &#x27;scheduler&#x27;: None, &#x27;interfaces&#x27;: None, &#x27;ssl_private_key&#x27;: &#x27;&#x27;, &#x27;gae&#x27;: None, &#x27;password&#x27;: &#x27;******&#x27;, &#x27;request_queue_size&#x27;: 5, &#x27;ssl_certificate&#x27;: &#x27;&#x27;, &#x27;cronjob&#x27;: False, &#x27;numthreads&#x27;: None, &#x27;quiet&#x27;: False, &#x27;import_models&#x27;: False, &#x27;timeout&#x27;: 10, &#x27;plain&#x27;: False, &#x27;nobanner&#x27;: False}&gt;</div></td></tr><tr><td style="font-weight:bold;vertical-align:top;">db_sessions</td><td style="vertical-align:top;">:</td><td><div>set([])</div></td></tr><tr><td style="font-weight:bold;vertical-align:top;">debugging</td><td style="vertical-align:top;">:</td><td><div>False</div></td></tr><tr><td style="font-weight:bold;vertical-align:top;">gluon_parent</td><td style="vertical-align:top;">:</td><td><div>/home/tanguyl/Documents/projetPython/web2py</div></td></tr><tr><td style="font-weight:bold;vertical-align:top;">is_jython</td><td style="vertical-align:top;">:</td><td><div>False</div></td></tr><tr><td style="font-weight:bold;vertical-align:top;">is_pypy</td><td style="vertical-align:top;">:</td><td><div>False</div></td></tr><tr><td style="font-weight:bold;vertical-align:top;">is_source</td><td style="vertical-align:top;">:</td><td><div>True</div></td></tr><tr><td style="font-weight:bold;vertical-align:top;">local_hosts</td><td style="vertical-align:top;">:</td><td><div><table><tr><td><div>::1</div></td></tr><tr><td><div>127.0.1.1</div></td></tr><tr><td><div>::ffff:127.0.0.1</div></td></tr><tr><td><div>127.0.0.1</div></td></tr><tr><td><div>debian</div></td></tr></table></div></td></tr><tr><td style="font-weight:bold;vertical-align:top;">web2py_version</td><td style="vertical-align:top;">:</td><td><div>2.14.3-stable+timestamp.2016.03.26.23.02.02</div></td></tr></table></div></td></tr><tr><td style="font-weight:bold;vertical-align:top;">is_https</td><td style="vertical-align:top;">:</td><td><div>False</div></td></tr><tr><td style="font-weight:bold;vertical-align:top;">is_local</td><td style="vertical-align:top;">:</td><td><div>True</div></td></tr><tr><td style="font-weight:bold;vertical-align:top;">is_restful</td><td style="vertical-align:top;">:</td><td><div>False</div></td></tr><tr><td style="font-weight:bold;vertical-align:top;">is_scheduler</td><td style="vertical-align:top;">:</td><td><div>False</div></td></tr><tr><td style="font-weight:bold;vertical-align:top;">is_shell</td><td style="vertical-align:top;">:</td><td><div>False</div></td></tr><tr><td style="font-weight:bold;vertical-align:top;">now</td><td style="vertical-align:top;">:</td><td><div>datetime.datetime(2016, 4, 20, 12, 1, 7, 13290)</div></td></tr><tr><td style="font-weight:bold;vertical-align:top;">url</td><td style="vertical-align:top;">:</td><td><div>/main</div></td></tr><tr><td style="font-weight:bold;vertical-align:top;">utcnow</td><td style="vertical-align:top;">:</td><td><div>datetime.datetime(2016, 4, 20, 10, 1, 7, 13322)</div></td></tr><tr><td style="font-weight:bold;vertical-align:top;">wsgi</td><td style="vertical-align:top;">:</td><td><div>&lt;gluon.main.LazyWSGI object at 0x4104950&gt;</div></td></tr></table></div>'
tRp58
sS'frames'
p59
(lp60
(dp61
S'file'
p62
S'/home/tanguyl/Documents/projetPython/web2py/gluon/restricted.py'
p63
sS'dump'
p64
(dp65
S'environment'
p66
S"{'A': <class 'gluon.html.A'>, 'ANY_OF': <class 'gluon.validators.ANY_OF'>, 'ASSIGNJS': <function ASSIGNJS>, 'AppConfig': <function AppConfig>, 'Auth': <class 'gluon.tools.Auth'>, 'B': <class 'gluon.html.B'>, 'BEAUTIFY': <class 'gluon.html.BEAUTIFY'>, 'BODY': <class 'gluon.html.BODY'>, 'BR': <class 'gluon.html.BR'>, 'BUTTON': <class 'gluon.html.BUTTON'>, ...}"
p67
sS'ccode'
p68
S'<code object <module> at 0x4863230, file "/home/...cations/TEMPLATE/controllers/default.py", line 2>'
p69
ssS'lnum'
p70
I227
sS'lines'
p71
(dp72
I224
S'            ccode = code'
p73
sI225
S'        else:'
p74
sI226
S'            ccode = compile2(code, layer)'
p75
sI227
S'        exec ccode in environment'
p76
sI228
S'    except HTTP:'
p77
sI229
S'        raise'
p78
sI230
S'    except RestrictedError:'
p79
sI231
S'        # do not encapsulate (obfuscate) the original RestrictedError'
p80
sI222
S'    try:'
p81
sI223
S'        if isinstance(code, types.CodeType):'
p82
ssS'call'
p83
S'(code=\'# -*- coding: utf-8 -*-\\nimport sys,subprocess\\n# ...\\xc3\\xa9sent?")\\n\\nresponse._vars=response._caller(main)\\n\', environment={\'A\': <class \'gluon.html.A\'>, \'ANY_OF\': <class \'gluon.validators.ANY_OF\'>, \'ASSIGNJS\': <function ASSIGNJS>, \'AppConfig\': <function AppConfig>, \'Auth\': <class \'gluon.tools.Auth\'>, \'B\': <class \'gluon.html.B\'>, \'BEAUTIFY\': <class \'gluon.html.BEAUTIFY\'>, \'BODY\': <class \'gluon.html.BODY\'>, \'BR\': <class \'gluon.html.BR\'>, \'BUTTON\': <class \'gluon.html.BUTTON\'>, ...}, layer=\'/home/tanguyl/Documents/projetPython/web2py/applications/TEMPLATE/controllers/default.py\')'
p84
sS'func'
p85
S'restricted'
p86
sa(dp87
g62
S'/home/tanguyl/Documents/projetPython/web2py/applications/TEMPLATE/controllers/default.py'
p88
sg64
(dp89
sg70
I79
sg71
(dp90
I68
S'    elif form.errors:'
p91
sI69
S"        response.flash = 'form has errors'"
p92
sI70
S'    return form'
p93
sI71
S''
sI72
S'def initData():'
p94
sI73
S'    from subprocess import check_call'
p95
sI74
S'    try:'
p96
sI75
S'        subprocess.check_call(["python","/home/tanguyl/Documents/projetPython/scriptInit.py","/home/tanguyl/Documents/projetPython/Inventaireproduitschimiques.xlsx"])'
p97
sI76
S'    except subprocess.CalledProcessError:'
p98
sI77
S'        sys.exit("Une erreur vient de se produire : scriptInit.py est-il pr\xc3\xa9sent?")'
p99
ssg83
S'()'
p100
sg85
S'<module>'
p101
sa(dp102
g62
S'/home/tanguyl/Documents/projetPython/web2py/gluon/globals.py'
p103
sg64
(dp104
S'self'
p105
S'undefined'
p106
sS'f'
S'<function main>'
p107
ssg70
I417
sg71
(dp108
I416
S'        self._vars = None'
p109
sI417
S'        self._caller = lambda f: f()'
p110
sI418
S'        self._view_environment = None'
p111
sI419
S'        self._custom_commit = None'
p112
sI420
S'        self._custom_rollback = None'
p113
sI421
S"        self.generic_patterns = ['*']"
p114
sI412
S"        self.flash = ''            # used by the default view layout"
p115
sI413
S'        self.meta = Storage()      # used by web2py_ajax.html'
p116
sI414
S'        self.menu = []             # used by the default view layout'
p117
sI415
S'        self.files = []            # used by web2py_ajax.html'
p118
ssg83
S'(f=<function main>)'
p119
sg85
S'<lambda>'
p120
sa(dp121
g62
S'/home/tanguyl/Documents/projetPython/web2py/applications/TEMPLATE/controllers/default.py'
p122
sg64
(dp123
S'SQLFORM.grid'
p124
S'<function grid>'
p125
sS'records'
p126
g106
sS'table'
p127
S'<Table Produits_chimiques (id, Nom_francais, Nom...tements, MSDS_piece_jointe, Lien_FDS, Lien_MSDS)>'
p128
sS'global SQLFORM'
p129
S"<class 'gluon.sqlhtml.SQLFORM'>"
p130
ssg70
I22
sg71
(dp131
I17
S'    if (len(rows) == 0):'
p132
sI18
S'        initData()'
p133
sI19
S'    form = forming(table)'
p134
sI20
S'    #records=SQLFORM.grid(table,left=db.Conseils_de_prudence.on(db.Conseils_de_prudence.Codes == table.Conseils_de_prudence))'
p135
sI21
S"    #records=SQLFORM.smartgrid(table,linked_tables=['Conseils_de_prudence'],editable=True)"
p136
sI22
S'    records=SQLFORM.grid(table)'
p137
sI23
S'    return dict(form=form, records=records)'
p138
sI24
S''
sI25
S'def index():'
p139
sI26
S'    return response.render()'
p140
ssg83
S'()'
p141
sg85
S'main'
p142
sa(dp143
g62
S'/home/tanguyl/Documents/projetPython/web2py/gluon/sqlhtml.py'
p144
sg64
(dp145
S'field.represent'
p146
S'<function boo>'
p147
sS'field'
p148
S'<pydal.objects.Field object>'
p149
sS'row'
p150
S"<Row {'Mentions_de_danger': 'H300| H311 | H331 |...Fcatalog%2Fproduct%2Fsigma%2F14340%3Flang%3Dfr'}>"
p151
sS'value'
p152
S"'(+)-Bicuculline'"
p153
sS'nvalue'
p154
g106
ssg70
I2759
sg71
(dp155
I2754
S'                    if field.represent:'
p156
sI2755
S"                        if field.type.startswith('reference'):"
p157
sI2756
S'                            nvalue = repr_cache(field, value, row)'
p158
sI2757
S'                        else:'
p159
sI2758
S'                            try:'
p160
sI2759
S'                                nvalue = field.represent(value, row)'
p161
sI2760
S'                            except KeyError:'
p162
sI2761
S'                                try:'
p163
sI2762
S'                                    nvalue = field.represent(value, row[field.tablename])'
p164
sI2763
S'                                except KeyError:'
p165
ssg83
S"(query=<Table Produits_chimiques (id, Nom_francais, Nom...tements, MSDS_piece_jointe, Lien_FDS, Lien_MSDS)>, fields=[<pydal.objects.Field object>, <pydal.objects.Field object>, <pydal.objects.Field object>, <pydal.objects.Field object>, <pydal.objects.Field object>, <pydal.objects.Field object>, <pydal.objects.Field object>, <pydal.objects.Field object>, <pydal.objects.Field object>, <pydal.objects.Field object>, <pydal.objects.Field object>, <pydal.objects.Field object>, <pydal.objects.Field object>, <pydal.objects.Field object>, <pydal.objects.Field object>, <pydal.objects.Field object>, <pydal.objects.Field object>], field_id=<pydal.objects.Field object>, left=None, headers={}, orderby=<pydal.objects.Field object>, groupby=None, searchable=True, sortable=True, paginate=20, deletable=None, editable=None, details=True, selectable=None, create=None, csv=True, links=None, links_in_grid=True, upload=<function <lambda>>, args=[], user_signature=True, maxtextlengths={}, maxtextlength=20, onvalidation=None, onfailure=None, oncreate=None, onupdate=None, ondelete=None, sorter_icons=(<gluon.html.XML object>, <gluon.html.XML object>), ui={'button': 'button btn btn-default', 'buttonadd': 'icon plus icon-plus glyphicon glyphicon-plus', 'buttonback': 'icon leftarrow icon-arrow-left glyphicon glyphicon-arrow-left', 'buttondelete': 'icon trash icon-trash glyphicon glyphicon-trash', 'buttonedit': 'icon pen icon-pencil glyphicon glyphicon-pencil', 'buttonexport': 'icon downarrow icon-download glyphicon glyphicon-download', 'buttontable': 'icon rightarrow icon-arrow-right glyphicon glyphicon-arrow-right', 'buttontext': 'buttontext button', 'buttonview': 'icon magnifier icon-zoom-in glyphicon glyphicon-zoom-in', 'content': '', ...}, showbuttontext=True, _class='web2py_grid', formname='web2py_grid', search_widget=<function <lambda>>, advanced_search=True, ignore_rw=False, formstyle='bootstrap3_inline', exportclasses=None, formargs={}, createargs={}, editargs={}, viewargs={}, selectable_submit_button='Submit', buttons_placement='right', links_placement='right', noconfirm=False, cache_count=None, client_side_delete=False, ignore_common_filters=None, auto_pagination=True, use_cursor=False)"
p166
sg85
S'grid'
p167
sasS'pyver'
p168
S'Python 2.7.3: /usr/bin/python (prefix: /usr)'
p169
sS'session'
p170
g57
(S's\x1a\x00\x00\x00<div><table></table></div>'
tRp171
sS'etype'
p172
S"<type 'exceptions.TypeError'>"
p173
sS'date'
p174
S'Wed Apr 20 12:01:07 2016'
p175
sS'response'
p176
g57
(S's\xfe\x1d\x00\x00<div><table><tr><td style="font-weight:bold;vertical-align:top;">body</td><td style="vertical-align:top;">:</td><td><div>&lt;cStringIO.StringO object at 0x40fe650&gt;</div></td></tr><tr><td style="font-weight:bold;vertical-align:top;">cookies</td><td style="vertical-align:top;">:</td><td><div><table><tr><td style="font-weight:bold;vertical-align:top;">session_id_template</td><td style="vertical-align:top;">:</td><td><div>127.0.0.1-bb0754ae-4de9-47f8-8b98-1eb2452b29d8<table><tr><td style="font-weight:bold;vertical-align:top;">comment</td><td style="vertical-align:top;">:</td><td><div></div></td></tr><tr><td style="font-weight:bold;vertical-align:top;">domain</td><td style="vertical-align:top;">:</td><td><div></div></td></tr><tr><td style="font-weight:bold;vertical-align:top;">expires</td><td style="vertical-align:top;">:</td><td><div></div></td></tr><tr><td style="font-weight:bold;vertical-align:top;">httponly</td><td style="vertical-align:top;">:</td><td><div></div></td></tr><tr><td style="font-weight:bold;vertical-align:top;">max-age</td><td style="vertical-align:top;">:</td><td><div></div></td></tr><tr><td style="font-weight:bold;vertical-align:top;">path</td><td style="vertical-align:top;">:</td><td><div>/</div></td></tr><tr><td style="font-weight:bold;vertical-align:top;">secure</td><td style="vertical-align:top;">:</td><td><div></div></td></tr><tr><td style="font-weight:bold;vertical-align:top;">version</td><td style="vertical-align:top;">:</td><td><div></div></td></tr></table></div></td></tr></table></div></td></tr><tr><td style="font-weight:bold;vertical-align:top;">delimiters</td><td style="vertical-align:top;">:</td><td><div><table><tr><td><div>{{</div></td></tr><tr><td><div>}}</div></td></tr></table></div></td></tr><tr><td style="font-weight:bold;vertical-align:top;">files</td><td style="vertical-align:top;">:</td><td><div><table></table></div></td></tr><tr><td style="font-weight:bold;vertical-align:top;">flash</td><td style="vertical-align:top;">:</td><td><div></div></td></tr><tr><td style="font-weight:bold;vertical-align:top;">form_label_separator</td><td style="vertical-align:top;">:</td><td><div></div></td></tr><tr><td style="font-weight:bold;vertical-align:top;">formstyle</td><td style="vertical-align:top;">:</td><td><div>bootstrap3_inline</div></td></tr><tr><td style="font-weight:bold;vertical-align:top;">generic_patterns</td><td style="vertical-align:top;">:</td><td><div><table><tr><td><div>*</div></td></tr></table></div></td></tr><tr><td style="font-weight:bold;vertical-align:top;">google_analytics_id</td><td style="vertical-align:top;">:</td><td><div>None</div></td></tr><tr><td style="font-weight:bold;vertical-align:top;">headers</td><td style="vertical-align:top;">:</td><td><div><table><tr><td style="font-weight:bold;vertical-align:top;">X-Powered-By</td><td style="vertical-align:top;">:</td><td><div>web2py</div></td></tr></table></div></td></tr><tr><td style="font-weight:bold;vertical-align:top;">logo</td><td style="vertical-align:top;">:</td><td><div><a class="navbar-brand" href="http://intraiins.u-bordeaux2.fr/" id="web2py-logo"><b>IINS</b>&trade;&nbsp;</a></div></td></tr><tr><td style="font-weight:bold;vertical-align:top;">menu</td><td style="vertical-align:top;">:</td><td><div><table><tr><td><div><table><tr><td><div>Admin</div></td></tr><tr><td><div>False</div></td></tr><tr><td><div>/admin</div></td></tr><tr><td><div><table></table></div></td></tr></table></div></td></tr><tr><td><div><table><tr><td><div>Main</div></td></tr><tr><td><div>False</div></td></tr><tr><td><div>/main</div></td></tr></table></div></td></tr></table></div></td></tr><tr><td style="font-weight:bold;vertical-align:top;">meta</td><td style="vertical-align:top;">:</td><td><div><table><tr><td style="font-weight:bold;vertical-align:top;">author</td><td style="vertical-align:top;">:</td><td><div>Chambon Laurent&lt;Laurent.chambon@u-bordeaux.fr&gt;Jourde Tanguy&lt;tanguy.jourde@etu.u-bordeaux.fr&gt;</div></td></tr><tr><td style="font-weight:bold;vertical-align:top;">description</td><td style="vertical-align:top;">:</td><td><div>a cool new App</div></td></tr><tr><td style="font-weight:bold;vertical-align:top;">generator</td><td style="vertical-align:top;">:</td><td><div>Web2py Web Framework</div></td></tr><tr><td style="font-weight:bold;vertical-align:top;">keywords</td><td style="vertical-align:top;">:</td><td><div>manage products</div></td></tr></table></div></td></tr><tr><td style="font-weight:bold;vertical-align:top;">models_to_run</td><td style="vertical-align:top;">:</td><td><div><table><tr><td><div>^\\w+\\.py$</div></td></tr><tr><td><div>^default/\\w+\\.py$</div></td></tr><tr><td><div>^default/main/\\w+\\.py$</div></td></tr></table></div></td></tr><tr><td style="font-weight:bold;vertical-align:top;">postprocessing</td><td style="vertical-align:top;">:</td><td><div><table></table></div></td></tr><tr><td style="font-weight:bold;vertical-align:top;">session_client</td><td style="vertical-align:top;">:</td><td><div>127.0.0.1</div></td></tr><tr><td style="font-weight:bold;vertical-align:top;">session_cookie_compression_level</td><td style="vertical-align:top;">:</td><td><div>None</div></td></tr><tr><td style="font-weight:bold;vertical-align:top;">session_cookie_expires</td><td style="vertical-align:top;">:</td><td><div>None</div></td></tr><tr><td style="font-weight:bold;vertical-align:top;">session_data_name</td><td style="vertical-align:top;">:</td><td><div>session_data_template</div></td></tr><tr><td style="font-weight:bold;vertical-align:top;">session_file</td><td style="vertical-align:top;">:</td><td><div>&lt;open file &#x27;/home/tanguyl/Documents/projetPython/web2py/applications/TEMPLATE/sessions/0fc/118/127.0.0.1-bb0754ae-4de9-47f8-8b98-1eb2452b29d8&#x27;, mode &#x27;rb+&#x27; at 0x47761e0&gt;</div></td></tr><tr><td style="font-weight:bold;vertical-align:top;">session_filename</td><td style="vertical-align:top;">:</td><td><div>/home/tanguyl/Documents/projetPython/web2py/applications/TEMPLATE/sessions/127.0.0.1-bb0754ae-4de9-47f8-8b98-1eb2452b29d8</div></td></tr><tr><td style="font-weight:bold;vertical-align:top;">session_hash</td><td style="vertical-align:top;">:</td><td><div>45bd436fabef95f52d380e9f1d923fd6</div></td></tr><tr><td style="font-weight:bold;vertical-align:top;">session_id</td><td style="vertical-align:top;">:</td><td><div>127.0.0.1-bb0754ae-4de9-47f8-8b98-1eb2452b29d8</div></td></tr><tr><td style="font-weight:bold;vertical-align:top;">session_id_name</td><td style="vertical-align:top;">:</td><td><div>session_id_template</div></td></tr><tr><td style="font-weight:bold;vertical-align:top;">session_locked</td><td style="vertical-align:top;">:</td><td><div>True</div></td></tr><tr><td style="font-weight:bold;vertical-align:top;">session_masterapp</td><td style="vertical-align:top;">:</td><td><div>TEMPLATE</div></td></tr><tr><td style="font-weight:bold;vertical-align:top;">session_new</td><td style="vertical-align:top;">:</td><td><div>False</div></td></tr><tr><td style="font-weight:bold;vertical-align:top;">session_storage_type</td><td style="vertical-align:top;">:</td><td><div>file</div></td></tr><tr><td style="font-weight:bold;vertical-align:top;">status</td><td style="vertical-align:top;">:</td><td><div>200</div></td></tr><tr><td style="font-weight:bold;vertical-align:top;">subtitle</td><td style="vertical-align:top;">:</td><td><div></div></td></tr><tr><td style="font-weight:bold;vertical-align:top;">title</td><td style="vertical-align:top;">:</td><td><div>Template</div></td></tr><tr><td style="font-weight:bold;vertical-align:top;">view</td><td style="vertical-align:top;">:</td><td><div>default/main.html</div></td></tr></table></div>'
tRp177
sS'locals'
p178
(dp179
S'toadd'
p180
S'[]'
p181
sS'searchable'
p182
S'True'
p183
sS'sfields'
p184
S'[<pydal.objects.Field object>, <pydal.objects.Field object>, <pydal.objects.Field object>, <pydal.objects.Field object>, <pydal.objects.Field object>, <pydal.objects.Field object>, <pydal.objects.Field object>, <pydal.objects.Field object>, <pydal.objects.Field object>, <pydal.objects.Field object>, <pydal.objects.Field object>, <pydal.objects.Field object>, <pydal.objects.Field object>, <pydal.objects.Field object>, <pydal.objects.Field object>, <pydal.objects.Field object>, <pydal.objects.Field object>]'
p185
sS'paginate'
p186
S'20'
p187
sS'cols'
p188
S'[<gluon.html.COL object>, <gluon.html.COL object>, <gluon.html.COL object>, <gluon.html.COL object>, <gluon.html.COL object>, <gluon.html.COL object>, <gluon.html.COL object>, <gluon.html.COL object>, <gluon.html.COL object>, <gluon.html.COL object>, <gluon.html.COL object>, <gluon.html.COL object>, <gluon.html.COL object>, <gluon.html.COL object>, <gluon.html.COL object>, <gluon.html.COL object>, <gluon.html.COL object>, <gluon.html.COL object>]'
p189
sS'prefix'
p190
S"'w2p'"
p191
sg170
S"<Storage {'_web2py_grid_referrer_web2py_grid': '...30680', '0f77c2a8-8fe6-4d22-812b-f25ceed61b60']}>"
p192
sS'keywords'
p193
S"''"
p194
sS'query'
p195
S'<Table Produits_chimiques (id, Nom_francais, Nom...tements, MSDS_piece_jointe, Lien_FDS, Lien_MSDS)>'
p196
sS'row'
p197
S"<Row {'Mentions_de_danger': 'H300| H311 | H331 |...Fcatalog%2Fproduct%2Fsigma%2F14340%3Flang%3Dfr'}>"
p198
sS'paginator'
p199
S'<gluon.html.UL object>'
p200
sS'tables'
p201
S'[<Table Produits_chimiques (id, Nom_francais, Nom...tements, MSDS_piece_jointe, Lien_FDS, Lien_MSDS)>]'
p202
sS'console'
p203
S'<gluon.html.DIV object>'
p204
sS'fetch_count'
p205
S'<function fetch_count>'
p206
sS'logged'
p207
S'None'
p208
sS'update_form'
p209
S'None'
p210
sS'onupdate'
p211
S'None'
p212
sS'search_menu'
p213
S'<gluon.html.CAT object>'
p214
sS'add'
p215
S"''"
p216
sS'user_signature'
p217
g183
sS'onvalidation'
p218
S'None'
p219
sS'dbset'
p220
S'<Set (Produits_chimiques.id IS NOT NULL)>'
p221
sS'columns'
p222
S'[<pydal.objects.Field object>, <pydal.objects.Field object>, <pydal.objects.Field object>, <pydal.objects.Field object>, <pydal.objects.Field object>, <pydal.objects.Field object>, <pydal.objects.Field object>, <pydal.objects.Field object>, <pydal.objects.Field object>, <pydal.objects.Field object>, <pydal.objects.Field object>, <pydal.objects.Field object>, <pydal.objects.Field object>, <pydal.objects.Field object>, <pydal.objects.Field object>, <pydal.objects.Field object>, <pydal.objects.Field object>]'
p223
sS'onfailure'
p224
S'None'
p225
sS'use_cursor'
p226
S'False'
p227
sS'ignore_common_filters'
p228
S'None'
p229
sS'db'
p230
S'<DAL uri="sqlite://storage.sqlite">'
p231
sS'nrows'
p232
S'16'
p233
sS'filter1'
p234
S'<function <lambda>>'
p235
sS'T'
S'<gluon.languages.translator object>'
p236
sS'gridbutton'
p237
S'<function gridbutton>'
p238
sS'filter2'
p239
S'<function <lambda>>'
p240
sS'formname'
p241
S"'web2py_grid'"
p242
sS'_class'
p243
S"'web2py_grid'"
p244
sS'fields'
p245
S'[<pydal.objects.Field object>, <pydal.objects.Field object>, <pydal.objects.Field object>, <pydal.objects.Field object>, <pydal.objects.Field object>, <pydal.objects.Field object>, <pydal.objects.Field object>, <pydal.objects.Field object>, <pydal.objects.Field object>, <pydal.objects.Field object>, <pydal.objects.Field object>, <pydal.objects.Field object>, <pydal.objects.Field object>, <pydal.objects.Field object>, <pydal.objects.Field object>, <pydal.objects.Field object>, <pydal.objects.Field object>]'
p246
sS'editargs'
p247
g45
sS'upload'
p248
S'<function <lambda>>'
p249
sS'subquery'
p250
S'None'
p251
sS'hidden_fields'
p252
S'[]'
p253
sS'referrer'
p254
S"'/main'"
p255
sS'oncreate'
p256
S'None'
p257
sS'trcols'
p258
S'[<gluon.html.TD object>, <gluon.html.TD object>]'
p259
sS'marker'
p260
S"''"
p261
sS'table_fields'
p262
S'[<pydal.objects.Field object>, <pydal.objects.Field object>, <pydal.objects.Field object>, <pydal.objects.Field object>, <pydal.objects.Field object>, <pydal.objects.Field object>, <pydal.objects.Field object>, <pydal.objects.Field object>, <pydal.objects.Field object>, <pydal.objects.Field object>, <pydal.objects.Field object>, <pydal.objects.Field object>, <pydal.objects.Field object>, <pydal.objects.Field object>, <pydal.objects.Field object>, <pydal.objects.Field object>, <pydal.objects.Field object>]'
p263
sS'cache_count'
p264
S'None'
p265
sS'client_side_delete'
p266
g227
sS'formstyle'
p267
S"'bootstrap3_inline'"
p268
sS'formfooter'
p269
S'<gluon.html.DIV object>'
p270
sS'create_form'
p271
S'None'
p272
sS'skeywords_id'
p273
S"'w2p_keywords'"
p274
sS'maxtextlengths'
p275
g45
sS'url2'
p276
S'<function url2>'
p277
sS't'
S'<Table Produits_chimiques (id, Nom_francais, Nom...tements, MSDS_piece_jointe, Lien_FDS, Lien_MSDS)>'
p278
sS'numrec'
p279
S'0'
sS'exportManager'
p280
S"{'csv': (<class 'gluon.sqlhtml.ExporterCSV'>, 'CSV', <lazyT 'Comma-separated export of visible column...ar on-screen but this may be slow for many rows'>), 'csv_with_hidden_cols': (<class 'gluon.sqlhtml.ExporterCSV_hidden'>, 'CSV (hidden cols)', <lazyT 'Comma-separated export including columns...es are exported as raw values for faster export'>), 'html': (<class 'gluon.sqlhtml.ExporterHTML'>, 'HTML', <lazyT 'HTML export of visible columns'>), 'json': (<class 'gluon.sqlhtml.ExporterJSON'>, 'JSON', <lazyT 'JSON export of visible columns'>), 'tsv': (<class 'gluon.sqlhtml.ExporterTSV'>, 'TSV (Spreadsheets)', <lazyT 'Spreadsheet-optimised export of tab-separated content, visible columns only. May be slow.'>), 'tsv_with_hidden_cols': (<class 'gluon.sqlhtml.ExporterTSV'>, 'TSV (Spreadsheets, hidden cols)', <lazyT 'Spreadsheet-optimised export of tab-sepa...d content including hidden columns. May be slow'>), 'xml': (<class 'gluon.sqlhtml.ExporterXML'>, 'XML', <lazyT 'XML export of columns shown'>)}"
p281
sg24
S'[]'
p282
sS'next_cursor'
p283
S'None'
p284
sS'key'
p285
S"'Produits_chimiques.Lien_MSDS'"
p286
sS'links_in_grid'
p287
g183
sS'selectable'
p288
S'None'
p289
sS'c'
S'<pydal.objects.Field object>'
p290
sS'ordermatch'
p291
S"'None'"
p292
sS'search_form'
p293
S'None'
p294
sS'showbuttontext'
p295
g183
sS'maxlength'
p296
S'20'
p297
sS'links_placement'
p298
S"'right'"
p299
sS'groupby'
p300
S'None'
p301
sS'tablenames'
p302
S"['Produits_chimiques']"
p303
sS'export_type'
p304
S'None'
p305
sS'exportclasses'
p306
S'None'
p307
sS'spanel_id'
p308
S"'w2p_query_fields'"
p309
sS'header'
p310
S'<gluon.html.A object>'
p311
sS'wenabled'
p312
S'None'
p313
sS'viewargs'
p314
g45
sS'table'
p315
S'<Table Produits_chimiques (id, Nom_francais, Nom...tements, MSDS_piece_jointe, Lien_FDS, Lien_MSDS)>'
p316
sS'message'
p317
S"<lazyT '%(nrows)s records found'>"
p318
sS'selectable_submit_button'
p319
S"'Submit'"
p320
sS'buttons'
p321
S'<function buttons>'
p322
sS'rows'
p323
S'<Rows (16)>'
p324
sS'i'
S'0'
sS'ignore_rw'
p325
g227
sS'createargs'
p326
g45
sS'create'
p327
S'None'
p328
sS'tablename'
p329
S"'Produits_chimiques'"
p330
sS'formargs'
p331
g45
sS'fix_orderby'
p332
S'<function fix_orderby>'
p333
sS'linsert'
p334
S'<function linsert>'
p335
sS'auto_pagination'
p336
g183
sS'head'
p337
S'<gluon.html.TR object>'
p338
sS'form'
p339
S'<gluon.html.CAT object>'
p340
sS'left_cols'
p341
S'0'
sS'editable'
p342
S'None'
p343
sS'deletable'
p344
S'None'
p345
sS'orderby'
p346
S'<pydal.objects.Field object>'
p347
sS'include_buttons_column'
p348
g183
sS'sortable'
p349
g183
sS'f'
S'<pydal.objects.Field object>'
p350
sS'limitby'
p351
S'None'
p352
sS'value'
p353
S"'(+)-Bicuculline'"
p354
sS'cursor'
p355
g183
sS'headers'
p356
g45
sS'sfields_id'
p357
S"'w2p_query_panel'"
p358
sS'headcols'
p359
S'[<gluon.html.TH object>, <gluon.html.TH object>, <gluon.html.TH object>, <gluon.html.TH object>, <gluon.html.TH object>, <gluon.html.TH object>, <gluon.html.TH object>, <gluon.html.TH object>, <gluon.html.TH object>, <gluon.html.TH object>, <gluon.html.TH object>, <gluon.html.TH object>, <gluon.html.TH object>, <gluon.html.TH object>, <gluon.html.TH object>, <gluon.html.TH object>, <gluon.html.TH object>, <gluon.html.TH object>]'
p360
sS'ui'
p361
S"{'button': 'button btn btn-default', 'buttonadd': 'icon plus icon-plus glyphicon glyphicon-plus', 'buttonback': 'icon leftarrow icon-arrow-left glyphicon glyphicon-arrow-left', 'buttondelete': 'icon trash icon-trash glyphicon glyphicon-trash', 'buttonedit': 'icon pen icon-pencil glyphicon glyphicon-pencil', 'buttonexport': 'icon downarrow icon-download glyphicon glyphicon-download', 'buttontable': 'icon rightarrow icon-arrow-right glyphicon glyphicon-arrow-right', 'buttontext': 'buttontext button', 'buttonview': 'icon magnifier icon-zoom-in glyphicon glyphicon-zoom-in', 'content': '', ...}"
p362
sS'error'
p363
S'None'
p364
sS'repr_cache'
p365
S'<gluon.sqlhtml.CacheRepresenter object>'
p366
sS'k'
S"'_after_insert'"
p367
sS'search_widget'
p368
S'<function <lambda>>'
p369
sS'view_form'
p370
S'None'
p371
sS'links'
p372
S'None'
p373
sS'ondelete'
p374
S'None'
p375
sS'sorter_icons'
p376
S'(<gluon.html.XML object>, <gluon.html.XML object>)'
p377
sS'id'
p378
S'0L'
p379
sS'maxtextlength'
p380
S'20'
p381
sS'tbody'
p382
S'<gluon.html.TBODY object>'
p383
sS'field'
p384
S'<pydal.objects.Field object>'
p385
sS'details'
p386
g183
sS'csv'
p387
g183
sS'advanced_search'
p388
g183
sS'field_id'
p389
S'<pydal.objects.Field object>'
p390
sS'noconfirm'
p391
g227
sS'htmltable'
p392
S'<gluon.html.TABLE object>'
p393
sg176
S"<Storage {'body': <cStringIO.StringO object at 0...bda> at 0x4c51398>, 'view': 'default/main.html'}>"
p394
sS'url'
p395
S'<function url>'
p396
sg56
S"<Storage {'_vars': <Storage {'records': []}>, 'f...nts/projetPython/web2py/applications/TEMPLATE/'}>"
p397
sS'buttons_placement'
p398
S"'right'"
p399
sS'right_cols'
p400
S'1'
sS'order'
p401
S"''"
p402
sS'left'
p403
S'None'
p404
sssS'traceback'
p405
S'Traceback (most recent call last):\n  File "/home/tanguyl/Documents/projetPython/web2py/gluon/restricted.py", line 227, in restricted\n    exec ccode in environment\n  File "/home/tanguyl/Documents/projetPython/web2py/applications/TEMPLATE/controllers/default.py", line 79, in <module>\n  File "/home/tanguyl/Documents/projetPython/web2py/gluon/globals.py", line 417, in <lambda>\n    self._caller = lambda f: f()\n  File "/home/tanguyl/Documents/projetPython/web2py/applications/TEMPLATE/controllers/default.py", line 22, in main\n    records=SQLFORM.grid(table)\n  File "/home/tanguyl/Documents/projetPython/web2py/gluon/sqlhtml.py", line 2759, in grid\n    nvalue = field.represent(value, row)\nTypeError: boo() takes exactly 1 argument (2 given)\n'
p406
s.