(dp1
S'output'
p2
S''
sS'layer'
p3
S'Framework'
p4
sS'code'
p5
S''
sS'snapshot'
p6
(dp7
S'exception'
p8
(dp9
g5
S"'Une erreur vient de se produire : scriptInit.py est-il pr\\xc3\\xa9sent?'"
p10
sS'__getslice__'
p11
S"<method-wrapper '__getslice__' of exceptions.SystemExit object>"
p12
sS'__str__'
p13
S"<method-wrapper '__str__' of exceptions.SystemExit object>"
p14
sS'__reduce__'
p15
S'<built-in method __reduce__ of exceptions.SystemExit object>'
p16
sS'__dict__'
p17
S'{}'
p18
sS'__sizeof__'
p19
S'<built-in method __sizeof__ of exceptions.SystemExit object>'
p20
sS'__init__'
p21
S"<method-wrapper '__init__' of exceptions.SystemExit object>"
p22
sS'__setattr__'
p23
S"<method-wrapper '__setattr__' of exceptions.SystemExit object>"
p24
sS'__reduce_ex__'
p25
S'<built-in method __reduce_ex__ of exceptions.SystemExit object>'
p26
sS'__new__'
p27
S'<built-in method __new__ of type object>'
p28
sS'__format__'
p29
S'<built-in method __format__ of exceptions.SystemExit object>'
p30
sS'__class__'
p31
S"<type 'exceptions.SystemExit'>"
p32
sS'__doc__'
p33
S"'Request to exit from the interpreter.'"
p34
sS'__getitem__'
p35
S"<method-wrapper '__getitem__' of exceptions.SystemExit object>"
p36
sS'__setstate__'
p37
S'<built-in method __setstate__ of exceptions.SystemExit object>'
p38
sS'__getattribute__'
p39
S"<method-wrapper '__getattribute__' of exceptions.SystemExit object>"
p40
sS'args'
p41
S"('Une erreur vient de se produire : scriptInit.py est-il pr\\xc3\\xa9sent?',)"
p42
sS'__subclasshook__'
p43
S'<built-in method __subclasshook__ of type object>'
p44
sS'__unicode__'
p45
S'<built-in method __unicode__ of exceptions.SystemExit object>'
p46
sS'__delattr__'
p47
S"<method-wrapper '__delattr__' of exceptions.SystemExit object>"
p48
sS'__repr__'
p49
S"<method-wrapper '__repr__' of exceptions.SystemExit object>"
p50
sS'__hash__'
p51
S"<method-wrapper '__hash__' of exceptions.SystemExit object>"
p52
ssS'evalue'
p53
S'Une erreur vient de se produire : scriptInit.py est-il pr\xc3\xa9sent?'
p54
sS'request'
p55
cgluon.html
XML_unpickle
p56
(S'suS\x00\x00<div><table><tr><td style="font-weight:bold;vertical-align:top;">ajax</td><td style="vertical-align:top;">:</td><td><div>False</div></td></tr><tr><td style="font-weight:bold;vertical-align:top;">application</td><td style="vertical-align:top;">:</td><td><div>TEMPLATE</div></td></tr><tr><td style="font-weight:bold;vertical-align:top;">args</td><td style="vertical-align:top;">:</td><td><div><table></table></div></td></tr><tr><td style="font-weight:bold;vertical-align:top;">cid</td><td style="vertical-align:top;">:</td><td><div>None</div></td></tr><tr><td style="font-weight:bold;vertical-align:top;">client</td><td style="vertical-align:top;">:</td><td><div>127.0.0.1</div></td></tr><tr><td style="font-weight:bold;vertical-align:top;">controller</td><td style="vertical-align:top;">:</td><td><div>default</div></td></tr><tr><td style="font-weight:bold;vertical-align:top;">cookies</td><td style="vertical-align:top;">:</td><td><div><table><tr><td style="font-weight:bold;vertical-align:top;">session_id_admin</td><td style="vertical-align:top;">:</td><td><div>127.0.0.1-d7ce76d5-c192-4c6d-bab1-b0ba33d28e54<table><tr><td style="font-weight:bold;vertical-align:top;">comment</td><td style="vertical-align:top;">:</td><td><div></div></td></tr><tr><td style="font-weight:bold;vertical-align:top;">domain</td><td style="vertical-align:top;">:</td><td><div></div></td></tr><tr><td style="font-weight:bold;vertical-align:top;">expires</td><td style="vertical-align:top;">:</td><td><div></div></td></tr><tr><td style="font-weight:bold;vertical-align:top;">httponly</td><td style="vertical-align:top;">:</td><td><div></div></td></tr><tr><td style="font-weight:bold;vertical-align:top;">max-age</td><td style="vertical-align:top;">:</td><td><div></div></td></tr><tr><td style="font-weight:bold;vertical-align:top;">path</td><td style="vertical-align:top;">:</td><td><div></div></td></tr><tr><td style="font-weight:bold;vertical-align:top;">secure</td><td style="vertical-align:top;">:</td><td><div></div></td></tr><tr><td style="font-weight:bold;vertical-align:top;">version</td><td style="vertical-align:top;">:</td><td><div></div></td></tr></table></div></td></tr><tr><td style="font-weight:bold;vertical-align:top;">session_id_template</td><td style="vertical-align:top;">:</td><td><div>127.0.0.1-bb0754ae-4de9-47f8-8b98-1eb2452b29d8<table><tr><td style="font-weight:bold;vertical-align:top;">comment</td><td style="vertical-align:top;">:</td><td><div></div></td></tr><tr><td style="font-weight:bold;vertical-align:top;">domain</td><td style="vertical-align:top;">:</td><td><div></div></td></tr><tr><td style="font-weight:bold;vertical-align:top;">expires</td><td style="vertical-align:top;">:</td><td><div></div></td></tr><tr><td style="font-weight:bold;vertical-align:top;">httponly</td><td style="vertical-align:top;">:</td><td><div></div></td></tr><tr><td style="font-weight:bold;vertical-align:top;">max-age</td><td style="vertical-align:top;">:</td><td><div></div></td></tr><tr><td style="font-weight:bold;vertical-align:top;">path</td><td style="vertical-align:top;">:</td><td><div></div></td></tr><tr><td style="font-weight:bold;vertical-align:top;">secure</td><td style="vertical-align:top;">:</td><td><div></div></td></tr><tr><td style="font-weight:bold;vertical-align:top;">version</td><td style="vertical-align:top;">:</td><td><div></div></td></tr></table></div></td></tr></table></div></td></tr><tr><td style="font-weight:bold;vertical-align:top;">env</td><td style="vertical-align:top;">:</td><td><div><table><tr><td style="font-weight:bold;vertical-align:top;">HTTP_ACCEPT</td><td style="vertical-align:top;">:</td><td><div>text/html,application/xhtml+xml,application/xml;q=0.9,*/*;q=0.8</div></td></tr><tr><td style="font-weight:bold;vertical-align:top;">HTTP_ACCEPT_ENCODING</td><td style="vertical-align:top;">:</td><td><div>gzip, deflate</div></td></tr><tr><td style="font-weight:bold;vertical-align:top;">HTTP_ACCEPT_LANGUAGE</td><td style="vertical-align:top;">:</td><td><div>fr,fr-FR;q=0.8,en-US;q=0.5,en;q=0.3</div></td></tr><tr><td style="font-weight:bold;vertical-align:top;">HTTP_CONNECTION</td><td style="vertical-align:top;">:</td><td><div>keep-alive</div></td></tr><tr><td style="font-weight:bold;vertical-align:top;">HTTP_COOKIE</td><td style="vertical-align:top;">:</td><td><div>session_id_template=127.0.0.1-bb0754ae-4de9-47f8-8b98-1eb2452b29d8; session_id_admin=127.0.0.1-d7ce76d5-c192-4c6d-bab1-b0ba33d28e54</div></td></tr><tr><td style="font-weight:bold;vertical-align:top;">HTTP_HOST</td><td style="vertical-align:top;">:</td><td><div>127.0.0.1:8000</div></td></tr><tr><td style="font-weight:bold;vertical-align:top;">HTTP_REFERER</td><td style="vertical-align:top;">:</td><td><div>http://127.0.0.1:8000/</div></td></tr><tr><td style="font-weight:bold;vertical-align:top;">HTTP_USER_AGENT</td><td style="vertical-align:top;">:</td><td><div>Mozilla/5.0 (X11; Linux x86_64; rv:38.0) Gecko/20100101 Firefox/38.0 Iceweasel/38.7.1</div></td></tr><tr><td style="font-weight:bold;vertical-align:top;">PATH_INFO</td><td style="vertical-align:top;">:</td><td><div>/main</div></td></tr><tr><td style="font-weight:bold;vertical-align:top;">QUERY_STRING</td><td style="vertical-align:top;">:</td><td><div></div></td></tr><tr><td style="font-weight:bold;vertical-align:top;">REMOTE_ADDR</td><td style="vertical-align:top;">:</td><td><div>127.0.0.1</div></td></tr><tr><td style="font-weight:bold;vertical-align:top;">REMOTE_PORT</td><td style="vertical-align:top;">:</td><td><div>39408</div></td></tr><tr><td style="font-weight:bold;vertical-align:top;">REQUEST_METHOD</td><td style="vertical-align:top;">:</td><td><div>GET</div></td></tr><tr><td style="font-weight:bold;vertical-align:top;">SCRIPT_NAME</td><td style="vertical-align:top;">:</td><td><div></div></td></tr><tr><td style="font-weight:bold;vertical-align:top;">SERVER_NAME</td><td style="vertical-align:top;">:</td><td><div>debian</div></td></tr><tr><td style="font-weight:bold;vertical-align:top;">SERVER_PORT</td><td style="vertical-align:top;">:</td><td><div>8000</div></td></tr><tr><td style="font-weight:bold;vertical-align:top;">SERVER_PROTOCOL</td><td style="vertical-align:top;">:</td><td><div>HTTP/1.1</div></td></tr><tr><td style="font-weight:bold;vertical-align:top;">SERVER_SOFTWARE</td><td style="vertical-align:top;">:</td><td><div>Rocket 1.2.6</div></td></tr><tr><td style="font-weight:bold;vertical-align:top;">app_folders</td><td style="vertical-align:top;">:</td><td><div>set([&#x27;/home/tanguyl/Documents/projetPython/web2py/applications/TEMPLATE/&#x27;])</div></td></tr><tr><td style="font-weight:bold;vertical-align:top;">applications_parent</td><td style="vertical-align:top;">:</td><td><div>/home/tanguyl/Documents/projetPython/web2py</div></td></tr><tr><td style="font-weight:bold;vertical-align:top;">cmd_args</td><td style="vertical-align:top;">:</td><td><div><table></table></div></td></tr><tr><td style="font-weight:bold;vertical-align:top;">cmd_options</td><td style="vertical-align:top;">:</td><td><div>&lt;Values at 0x2357cb0: {&#x27;verbose&#x27;: False, &#x27;ip&#x27;: &#x27;127.0.0.1&#x27;, &#x27;debuglevel&#x27;: 30, &#x27;with_scheduler&#x27;: False, &#x27;shutdown_timeout&#x27;: 5, &#x27;taskbar&#x27;: False, &#x27;with_coverage&#x27;: False, &#x27;pid_filename&#x27;: &#x27;httpserver.pid&#x27;, &#x27;maxthreads&#x27;: None, &#x27;softcron&#x27;: False, &#x27;server_name&#x27;: &#x27;debian&#x27;, &#x27;bpython&#x27;: False, &#x27;nogui&#x27;: False, &#x27;port&#x27;: 8000, &#x27;print_errors&#x27;: False, &#x27;extcron&#x27;: False, &#x27;runcron&#x27;: False, &#x27;run_system_tests&#x27;: False, &#x27;test&#x27;: None, &#x27;folder&#x27;: &#x27;/home/tanguyl/Documents/projetPython/web2py&#x27;, &#x27;config&#x27;: &#x27;&#x27;, &#x27;minthreads&#x27;: None, &#x27;shell&#x27;: None, &#x27;run&#x27;: &#x27;&#x27;, &#x27;log_filename&#x27;: &#x27;httpserver.log&#x27;, &#x27;profiler_dir&#x27;: None, &#x27;args&#x27;: [&#x27;&#x27;], &#x27;socket_timeout&#x27;: 5, &#x27;ssl_ca_certificate&#x27;: None, &#x27;scheduler&#x27;: None, &#x27;interfaces&#x27;: None, &#x27;ssl_private_key&#x27;: &#x27;&#x27;, &#x27;gae&#x27;: None, &#x27;password&#x27;: &#x27;******&#x27;, &#x27;request_queue_size&#x27;: 5, &#x27;ssl_certificate&#x27;: &#x27;&#x27;, &#x27;cronjob&#x27;: False, &#x27;numthreads&#x27;: None, &#x27;quiet&#x27;: False, &#x27;import_models&#x27;: False, &#x27;timeout&#x27;: 10, &#x27;plain&#x27;: False, &#x27;nobanner&#x27;: False}&gt;</div></td></tr><tr><td style="font-weight:bold;vertical-align:top;">db_sessions</td><td style="vertical-align:top;">:</td><td><div>set([])</div></td></tr><tr><td style="font-weight:bold;vertical-align:top;">debugging</td><td style="vertical-align:top;">:</td><td><div>False</div></td></tr><tr><td style="font-weight:bold;vertical-align:top;">gluon_parent</td><td style="vertical-align:top;">:</td><td><div>/home/tanguyl/Documents/projetPython/web2py</div></td></tr><tr><td style="font-weight:bold;vertical-align:top;">http_accept</td><td style="vertical-align:top;">:</td><td><div>text/html,application/xhtml+xml,application/xml;q=0.9,*/*;q=0.8</div></td></tr><tr><td style="font-weight:bold;vertical-align:top;">http_accept_encoding</td><td style="vertical-align:top;">:</td><td><div>gzip, deflate</div></td></tr><tr><td style="font-weight:bold;vertical-align:top;">http_accept_language</td><td style="vertical-align:top;">:</td><td><div>fr,fr-FR;q=0.8,en-US;q=0.5,en;q=0.3</div></td></tr><tr><td style="font-weight:bold;vertical-align:top;">http_connection</td><td style="vertical-align:top;">:</td><td><div>keep-alive</div></td></tr><tr><td style="font-weight:bold;vertical-align:top;">http_cookie</td><td style="vertical-align:top;">:</td><td><div>session_id_template=127.0.0.1-bb0754ae-4de9-47f8-8b98-1eb2452b29d8; session_id_admin=127.0.0.1-d7ce76d5-c192-4c6d-bab1-b0ba33d28e54</div></td></tr><tr><td style="font-weight:bold;vertical-align:top;">http_host</td><td style="vertical-align:top;">:</td><td><div>127.0.0.1:8000</div></td></tr><tr><td style="font-weight:bold;vertical-align:top;">http_referer</td><td style="vertical-align:top;">:</td><td><div>http://127.0.0.1:8000/</div></td></tr><tr><td style="font-weight:bold;vertical-align:top;">http_user_agent</td><td style="vertical-align:top;">:</td><td><div>Mozilla/5.0 (X11; Linux x86_64; rv:38.0) Gecko/20100101 Firefox/38.0 Iceweasel/38.7.1</div></td></tr><tr><td style="font-weight:bold;vertical-align:top;">is_jython</td><td style="vertical-align:top;">:</td><td><div>False</div></td></tr><tr><td style="font-weight:bold;vertical-align:top;">is_pypy</td><td style="vertical-align:top;">:</td><td><div>False</div></td></tr><tr><td style="font-weight:bold;vertical-align:top;">is_source</td><td style="vertical-align:top;">:</td><td><div>True</div></td></tr><tr><td style="font-weight:bold;vertical-align:top;">local_hosts</td><td style="vertical-align:top;">:</td><td><div><table><tr><td><div>::1</div></td></tr><tr><td><div>127.0.1.1</div></td></tr><tr><td><div>::ffff:127.0.0.1</div></td></tr><tr><td><div>127.0.0.1</div></td></tr><tr><td><div>debian</div></td></tr></table></div></td></tr><tr><td style="font-weight:bold;vertical-align:top;">path_info</td><td style="vertical-align:top;">:</td><td><div>/main</div></td></tr><tr><td style="font-weight:bold;vertical-align:top;">query_string</td><td style="vertical-align:top;">:</td><td><div></div></td></tr><tr><td style="font-weight:bold;vertical-align:top;">remote_addr</td><td style="vertical-align:top;">:</td><td><div>127.0.0.1</div></td></tr><tr><td style="font-weight:bold;vertical-align:top;">remote_port</td><td style="vertical-align:top;">:</td><td><div>39408</div></td></tr><tr><td style="font-weight:bold;vertical-align:top;">request_method</td><td style="vertical-align:top;">:</td><td><div>GET</div></td></tr><tr><td style="font-weight:bold;vertical-align:top;">request_uri</td><td style="vertical-align:top;">:</td><td><div>/TEMPLATE/default/main</div></td></tr><tr><td style="font-weight:bold;vertical-align:top;">script_name</td><td style="vertical-align:top;">:</td><td><div></div></td></tr><tr><td style="font-weight:bold;vertical-align:top;">server_name</td><td style="vertical-align:top;">:</td><td><div>debian</div></td></tr><tr><td style="font-weight:bold;vertical-align:top;">server_port</td><td style="vertical-align:top;">:</td><td><div>8000</div></td></tr><tr><td style="font-weight:bold;vertical-align:top;">server_protocol</td><td style="vertical-align:top;">:</td><td><div>HTTP/1.1</div></td></tr><tr><td style="font-weight:bold;vertical-align:top;">server_software</td><td style="vertical-align:top;">:</td><td><div>Rocket 1.2.6</div></td></tr><tr><td style="font-weight:bold;vertical-align:top;">web2py_original_uri</td><td style="vertical-align:top;">:</td><td><div>/main</div></td></tr><tr><td style="font-weight:bold;vertical-align:top;">web2py_path</td><td style="vertical-align:top;">:</td><td><div>/home/tanguyl/Documents/projetPython/web2py</div></td></tr><tr><td style="font-weight:bold;vertical-align:top;">web2py_version</td><td style="vertical-align:top;">:</td><td><div>2.14.3-stable+timestamp.2016.03.26.23.02.02</div></td></tr><tr><td style="font-weight:bold;vertical-align:top;">wsgi.errors</td><td style="vertical-align:top;">:</td><td><div>&lt;open file &#x27;&lt;stderr&gt;&#x27;, mode &#x27;w&#x27; at 0x7f208d868270&gt;</div></td></tr><tr><td style="font-weight:bold;vertical-align:top;">wsgi.file_wrapper</td><td style="vertical-align:top;">:</td><td><div>&lt;class wsgiref.util.FileWrapper at 0x22ceb48&gt;</div></td></tr><tr><td style="font-weight:bold;vertical-align:top;">wsgi.input</td><td style="vertical-align:top;">:</td><td><div>&lt;socket._fileobject object at 0x2a0ded0&gt;</div></td></tr><tr><td style="font-weight:bold;vertical-align:top;">wsgi.multiprocess</td><td style="vertical-align:top;">:</td><td><div>False</div></td></tr><tr><td style="font-weight:bold;vertical-align:top;">wsgi.multithread</td><td style="vertical-align:top;">:</td><td><div>True</div></td></tr><tr><td style="font-weight:bold;vertical-align:top;">wsgi.run_once</td><td style="vertical-align:top;">:</td><td><div>False</div></td></tr><tr><td style="font-weight:bold;vertical-align:top;">wsgi.url_scheme</td><td style="vertical-align:top;">:</td><td><div>http</div></td></tr><tr><td style="font-weight:bold;vertical-align:top;">wsgi.version</td><td style="vertical-align:top;">:</td><td><div><table><tr><td><div>1</div></td></tr><tr><td><div>0</div></td></tr></table></div></td></tr><tr><td style="font-weight:bold;vertical-align:top;">wsgi_errors</td><td style="vertical-align:top;">:</td><td><div>&lt;open file &#x27;&lt;stderr&gt;&#x27;, mode &#x27;w&#x27; at 0x7f208d868270&gt;</div></td></tr><tr><td style="font-weight:bold;vertical-align:top;">wsgi_file_wrapper</td><td style="vertical-align:top;">:</td><td><div>&lt;class wsgiref.util.FileWrapper at 0x22ceb48&gt;</div></td></tr><tr><td style="font-weight:bold;vertical-align:top;">wsgi_input</td><td style="vertical-align:top;">:</td><td><div>&lt;socket._fileobject object at 0x2a0ded0&gt;</div></td></tr><tr><td style="font-weight:bold;vertical-align:top;">wsgi_multiprocess</td><td style="vertical-align:top;">:</td><td><div>False</div></td></tr><tr><td style="font-weight:bold;vertical-align:top;">wsgi_multithread</td><td style="vertical-align:top;">:</td><td><div>True</div></td></tr><tr><td style="font-weight:bold;vertical-align:top;">wsgi_run_once</td><td style="vertical-align:top;">:</td><td><div>False</div></td></tr><tr><td style="font-weight:bold;vertical-align:top;">wsgi_url_scheme</td><td style="vertical-align:top;">:</td><td><div>http</div></td></tr><tr><td style="font-weight:bold;vertical-align:top;">wsgi_version</td><td style="vertical-align:top;">:</td><td><div><table><tr><td><div>1</div></td></tr><tr><td><div>0</div></td></tr></table></div></td></tr></table></div></td></tr><tr><td style="font-weight:bold;vertical-align:top;">extension</td><td style="vertical-align:top;">:</td><td><div>html</div></td></tr><tr><td style="font-weight:bold;vertical-align:top;">folder</td><td style="vertical-align:top;">:</td><td><div>/home/tanguyl/Documents/projetPython/web2py/applications/TEMPLATE/</div></td></tr><tr><td style="font-weight:bold;vertical-align:top;">function</td><td style="vertical-align:top;">:</td><td><div>main</div></td></tr><tr><td style="font-weight:bold;vertical-align:top;">global_settings</td><td style="vertical-align:top;">:</td><td><div><table><tr><td style="font-weight:bold;vertical-align:top;">app_folders</td><td style="vertical-align:top;">:</td><td><div>set([&#x27;/home/tanguyl/Documents/projetPython/web2py/applications/TEMPLATE/&#x27;])</div></td></tr><tr><td style="font-weight:bold;vertical-align:top;">applications_parent</td><td style="vertical-align:top;">:</td><td><div>/home/tanguyl/Documents/projetPython/web2py</div></td></tr><tr><td style="font-weight:bold;vertical-align:top;">cmd_args</td><td style="vertical-align:top;">:</td><td><div><table></table></div></td></tr><tr><td style="font-weight:bold;vertical-align:top;">cmd_options</td><td style="vertical-align:top;">:</td><td><div>&lt;Values at 0x2357cb0: {&#x27;verbose&#x27;: False, &#x27;ip&#x27;: &#x27;127.0.0.1&#x27;, &#x27;debuglevel&#x27;: 30, &#x27;with_scheduler&#x27;: False, &#x27;shutdown_timeout&#x27;: 5, &#x27;taskbar&#x27;: False, &#x27;with_coverage&#x27;: False, &#x27;pid_filename&#x27;: &#x27;httpserver.pid&#x27;, &#x27;maxthreads&#x27;: None, &#x27;softcron&#x27;: False, &#x27;server_name&#x27;: &#x27;debian&#x27;, &#x27;bpython&#x27;: False, &#x27;nogui&#x27;: False, &#x27;port&#x27;: 8000, &#x27;print_errors&#x27;: False, &#x27;extcron&#x27;: False, &#x27;runcron&#x27;: False, &#x27;run_system_tests&#x27;: False, &#x27;test&#x27;: None, &#x27;folder&#x27;: &#x27;/home/tanguyl/Documents/projetPython/web2py&#x27;, &#x27;config&#x27;: &#x27;&#x27;, &#x27;minthreads&#x27;: None, &#x27;shell&#x27;: None, &#x27;run&#x27;: &#x27;&#x27;, &#x27;log_filename&#x27;: &#x27;httpserver.log&#x27;, &#x27;profiler_dir&#x27;: None, &#x27;args&#x27;: [&#x27;&#x27;], &#x27;socket_timeout&#x27;: 5, &#x27;ssl_ca_certificate&#x27;: None, &#x27;scheduler&#x27;: None, &#x27;interfaces&#x27;: None, &#x27;ssl_private_key&#x27;: &#x27;&#x27;, &#x27;gae&#x27;: None, &#x27;password&#x27;: &#x27;******&#x27;, &#x27;request_queue_size&#x27;: 5, &#x27;ssl_certificate&#x27;: &#x27;&#x27;, &#x27;cronjob&#x27;: False, &#x27;numthreads&#x27;: None, &#x27;quiet&#x27;: False, &#x27;import_models&#x27;: False, &#x27;timeout&#x27;: 10, &#x27;plain&#x27;: False, &#x27;nobanner&#x27;: False}&gt;</div></td></tr><tr><td style="font-weight:bold;vertical-align:top;">db_sessions</td><td style="vertical-align:top;">:</td><td><div>set([])</div></td></tr><tr><td style="font-weight:bold;vertical-align:top;">debugging</td><td style="vertical-align:top;">:</td><td><div>False</div></td></tr><tr><td style="font-weight:bold;vertical-align:top;">gluon_parent</td><td style="vertical-align:top;">:</td><td><div>/home/tanguyl/Documents/projetPython/web2py</div></td></tr><tr><td style="font-weight:bold;vertical-align:top;">is_jython</td><td style="vertical-align:top;">:</td><td><div>False</div></td></tr><tr><td style="font-weight:bold;vertical-align:top;">is_pypy</td><td style="vertical-align:top;">:</td><td><div>False</div></td></tr><tr><td style="font-weight:bold;vertical-align:top;">is_source</td><td style="vertical-align:top;">:</td><td><div>True</div></td></tr><tr><td style="font-weight:bold;vertical-align:top;">local_hosts</td><td style="vertical-align:top;">:</td><td><div><table><tr><td><div>::1</div></td></tr><tr><td><div>127.0.1.1</div></td></tr><tr><td><div>::ffff:127.0.0.1</div></td></tr><tr><td><div>127.0.0.1</div></td></tr><tr><td><div>debian</div></td></tr></table></div></td></tr><tr><td style="font-weight:bold;vertical-align:top;">web2py_version</td><td style="vertical-align:top;">:</td><td><div>2.14.3-stable+timestamp.2016.03.26.23.02.02</div></td></tr></table></div></td></tr><tr><td style="font-weight:bold;vertical-align:top;">is_https</td><td style="vertical-align:top;">:</td><td><div>False</div></td></tr><tr><td style="font-weight:bold;vertical-align:top;">is_local</td><td style="vertical-align:top;">:</td><td><div>True</div></td></tr><tr><td style="font-weight:bold;vertical-align:top;">is_restful</td><td style="vertical-align:top;">:</td><td><div>False</div></td></tr><tr><td style="font-weight:bold;vertical-align:top;">is_scheduler</td><td style="vertical-align:top;">:</td><td><div>False</div></td></tr><tr><td style="font-weight:bold;vertical-align:top;">is_shell</td><td style="vertical-align:top;">:</td><td><div>False</div></td></tr><tr><td style="font-weight:bold;vertical-align:top;">now</td><td style="vertical-align:top;">:</td><td><div>datetime.datetime(2016, 4, 20, 17, 35, 33, 614393)</div></td></tr><tr><td style="font-weight:bold;vertical-align:top;">url</td><td style="vertical-align:top;">:</td><td><div>/main</div></td></tr><tr><td style="font-weight:bold;vertical-align:top;">utcnow</td><td style="vertical-align:top;">:</td><td><div>datetime.datetime(2016, 4, 20, 15, 35, 33, 614417)</div></td></tr><tr><td style="font-weight:bold;vertical-align:top;">wsgi</td><td style="vertical-align:top;">:</td><td><div>&lt;gluon.main.LazyWSGI object at 0x2a2db90&gt;</div></td></tr></table></div>'
tRp57
sS'frames'
p58
(lp59
(dp60
S'file'
p61
S'/home/tanguyl/Documents/projetPython/web2py/gluon/main.py'
p62
sS'dump'
p63
(dp64
S'global serve_controller'
p65
S'<function serve_controller>'
p66
sS'session'
p67
S"<Storage {'_web2py_grid_referrer_web2py_grid': '...6e075', '39f1a0ed-bd4e-4f26-81e5-bf70ae8d8573']}>"
p68
sS'request'
p69
S"<Storage {'_vars': None, 'function': 'main', 'co...nts/projetPython/web2py/applications/TEMPLATE/'}>"
p70
sS'response'
p71
S"<Storage {'body': <cStringIO.StringO object at 0...bda> at 0x2a2eaa0>, 'view': 'default/main.html'}>"
p72
ssS'lnum'
p73
I449
sS'lines'
p74
(dp75
I448
S''
sI449
S'                serve_controller(request, response, session)'
p76
sI450
S''
sI451
S'            except HTTP, http_response:'
p77
sI452
S''
sI453
S'                if static_file:'
p78
sI444
S'                if global_settings.debugging and app != "admin":'
p79
sI445
S'                    import gluon.debug'
p80
sI446
S'                    # activate the debugger'
p81
sI447
S'                    gluon.debug.dbg.do_debug(mainpyfile=request.folder)'
p82
ssS'call'
p83
S"(environ={'HTTP_ACCEPT': 'text/html,application/xhtml+xml,application/xml;q=0.9,*/*;q=0.8', 'HTTP_ACCEPT_ENCODING': 'gzip, deflate', 'HTTP_ACCEPT_LANGUAGE': 'fr,fr-FR;q=0.8,en-US;q=0.5,en;q=0.3', 'HTTP_CONNECTION': 'keep-alive', 'HTTP_COOKIE': 'session_id_template=127.0.0.1-bb0754ae-4de9-47f8...in=127.0.0.1-d7ce76d5-c192-4c6d-bab1-b0ba33d28e54', 'HTTP_HOST': '127.0.0.1:8000', 'HTTP_REFERER': 'http://127.0.0.1:8000/', 'HTTP_USER_AGENT': 'Mozilla/5.0 (X11; Linux x86_64; rv:38.0) Gecko/20100101 Firefox/38.0 Iceweasel/38.7.1', 'PATH_INFO': '/main', 'QUERY_STRING': '', ...}, responder=<function responder2>)"
p84
sS'func'
p85
S'wsgibase'
p86
sa(dp87
g61
S'/home/tanguyl/Documents/projetPython/web2py/gluon/main.py'
p88
sg63
(dp89
S'global run_controller_in'
p90
S'<function run_controller_in>'
p91
sS'request.controller'
p92
S"'default'"
p93
sS'request'
p94
S"<Storage {'_vars': None, 'function': 'main', 'co...nts/projetPython/web2py/applications/TEMPLATE/'}>"
p95
sS'environment'
p96
S"{'A': <class 'gluon.html.A'>, 'ANY_OF': <class 'gluon.validators.ANY_OF'>, 'ASSIGNJS': <function ASSIGNJS>, 'AppConfig': <function AppConfig>, 'Auth': <class 'gluon.tools.Auth'>, 'B': <class 'gluon.html.B'>, 'BEAUTIFY': <class 'gluon.html.BEAUTIFY'>, 'BODY': <class 'gluon.html.BODY'>, 'BR': <class 'gluon.html.BR'>, 'BUTTON': <class 'gluon.html.BUTTON'>, ...}"
p97
sS'request.function'
p98
S"'main'"
p99
sS'page'
p100
S'undefined'
p101
ssg73
I187
sg74
(dp102
I182
S'    # process models, controller and view (if required)'
p103
sI183
S'    # ##################################################'
p104
sI184
S''
sI185
S'    run_models_in(environment)'
p105
sI186
S'    response._view_environment = copy.copy(environment)'
p106
sI187
S'    page = run_controller_in(request.controller, request.function, environment)'
p107
sI188
S'    if isinstance(page, dict):'
p108
sI189
S'        response._vars = page'
p109
sI190
S'        response._view_environment.update(page)'
p110
sI191
S'        run_view_in(response._view_environment)'
p111
ssg83
S"(request=<Storage {'_vars': None, 'function': 'main', 'co...nts/projetPython/web2py/applications/TEMPLATE/'}>, response=<Storage {'body': <cStringIO.StringO object at 0...bda> at 0x2a2eaa0>, 'view': 'default/main.html'}>, session=<Storage {'_web2py_grid_referrer_web2py_grid': '...6e075', '39f1a0ed-bd4e-4f26-81e5-bf70ae8d8573']}>)"
p112
sg85
S'serve_controller'
p113
sa(dp114
g61
S'/home/tanguyl/Documents/projetPython/web2py/gluon/compileapp.py'
p115
sg63
(dp116
S'environment'
p117
S"{'A': <class 'gluon.html.A'>, 'ANY_OF': <class 'gluon.validators.ANY_OF'>, 'ASSIGNJS': <function ASSIGNJS>, 'AppConfig': <function AppConfig>, 'Auth': <class 'gluon.tools.Auth'>, 'B': <class 'gluon.html.B'>, 'BEAUTIFY': <class 'gluon.html.BEAUTIFY'>, 'BODY': <class 'gluon.html.BODY'>, 'BR': <class 'gluon.html.BR'>, 'BUTTON': <class 'gluon.html.BUTTON'>, ...}"
p118
sS'code'
p119
S'\'# -*- coding: utf-8 -*-\\nimport sys,subprocess\\n# ...r\\xc3\\xa9sent?")\\nresponse._vars=response._caller(main)\\n\''
p120
sS'global restricted'
p121
S'<function restricted>'
p122
sS'filename'
p123
S"'/home/tanguyl/Documents/projetPython/web2py/applications/TEMPLATE/controllers/default.py'"
p124
ssg73
I640
sg74
(dp125
I640
S'        restricted(code, environment, filename)'
p126
sI641
S'    response = current.response'
p127
sI642
S'    vars = response._vars'
p128
sI643
S'    if response.postprocessing:'
p129
sI644
S'        vars = reduce(lambda vars, p: p(vars), response.postprocessing, vars)'
p130
sI635
S'                       web2py_error=badf)'
p131
sI636
S'        code = "%s\\nresponse._vars=response._caller(%s)\\n" % (code, function)'
p132
sI637
S'        if is_gae:'
p133
sI638
S"            layer = filename + ':' + function"
p134
sI639
S'            code = getcfs(layer, filename, lambda: compile2(code, layer))'
p135
ssg83
S"(controller='default', function='main', environment={'A': <class 'gluon.html.A'>, 'ANY_OF': <class 'gluon.validators.ANY_OF'>, 'ASSIGNJS': <function ASSIGNJS>, 'AppConfig': <function AppConfig>, 'Auth': <class 'gluon.tools.Auth'>, 'B': <class 'gluon.html.B'>, 'BEAUTIFY': <class 'gluon.html.BEAUTIFY'>, 'BODY': <class 'gluon.html.BODY'>, 'BR': <class 'gluon.html.BR'>, 'BUTTON': <class 'gluon.html.BUTTON'>, ...})"
p136
sg85
S'run_controller_in'
p137
sa(dp138
g61
S'/home/tanguyl/Documents/projetPython/web2py/gluon/restricted.py'
p139
sg63
(dp140
S'environment'
p141
S"{'A': <class 'gluon.html.A'>, 'ANY_OF': <class 'gluon.validators.ANY_OF'>, 'ASSIGNJS': <function ASSIGNJS>, 'AppConfig': <function AppConfig>, 'Auth': <class 'gluon.tools.Auth'>, 'B': <class 'gluon.html.B'>, 'BEAUTIFY': <class 'gluon.html.BEAUTIFY'>, 'BODY': <class 'gluon.html.BODY'>, 'BR': <class 'gluon.html.BR'>, 'BUTTON': <class 'gluon.html.BUTTON'>, ...}"
p142
sS'ccode'
p143
S'<code object <module> at 0x2b229b0, file "/home/...cations/TEMPLATE/controllers/default.py", line 2>'
p144
ssg73
I227
sg74
(dp145
I224
S'            ccode = code'
p146
sI225
S'        else:'
p147
sI226
S'            ccode = compile2(code, layer)'
p148
sI227
S'        exec ccode in environment'
p149
sI228
S'    except HTTP:'
p150
sI229
S'        raise'
p151
sI230
S'    except RestrictedError:'
p152
sI231
S'        # do not encapsulate (obfuscate) the original RestrictedError'
p153
sI222
S'    try:'
p154
sI223
S'        if isinstance(code, types.CodeType):'
p155
ssg83
S'(code=\'# -*- coding: utf-8 -*-\\nimport sys,subprocess\\n# ...r\\xc3\\xa9sent?")\\nresponse._vars=response._caller(main)\\n\', environment={\'A\': <class \'gluon.html.A\'>, \'ANY_OF\': <class \'gluon.validators.ANY_OF\'>, \'ASSIGNJS\': <function ASSIGNJS>, \'AppConfig\': <function AppConfig>, \'Auth\': <class \'gluon.tools.Auth\'>, \'B\': <class \'gluon.html.B\'>, \'BEAUTIFY\': <class \'gluon.html.BEAUTIFY\'>, \'BODY\': <class \'gluon.html.BODY\'>, \'BR\': <class \'gluon.html.BR\'>, \'BUTTON\': <class \'gluon.html.BUTTON\'>, ...}, layer=\'/home/tanguyl/Documents/projetPython/web2py/applications/TEMPLATE/controllers/default.py\')'
p156
sg85
S'restricted'
p157
sa(dp158
g61
S'/home/tanguyl/Documents/projetPython/web2py/applications/TEMPLATE/controllers/default.py'
p159
sg63
(dp160
sg73
I77
sg74
(dp161
I67
S'        initData()'
p162
sI68
S'    form = forming(table)'
p163
sI69
S'    records=SQLFORM.grid(table)'
p164
sI70
S'    return dict(form=form, records=records)'
p165
sI71
S'def initData():'
p166
sI72
S'    from subprocess import check_call'
p167
sI73
S'    try:'
p168
sI74
S'        subprocess.check_call(["python","/home/tanguyl/Documents/projetPython/scriptInit.py","/home/tanguyl/Documents/projetPython/Inventaireproduitschimiques.xlsx"])'
p169
sI75
S'    except subprocess.CalledProcessError:'
p170
sI76
S'        sys.exit("Une erreur vient de se produire : scriptInit.py est-il pr\xc3\xa9sent?")'
p171
ssg83
S'()'
p172
sg85
S'<module>'
p173
sa(dp174
g61
S'/home/tanguyl/Documents/projetPython/web2py/gluon/globals.py'
p175
sg63
(dp176
S'self'
p177
g101
sS'f'
S'<function main>'
p178
ssg73
I417
sg74
(dp179
I416
S'        self._vars = None'
p180
sI417
S'        self._caller = lambda f: f()'
p181
sI418
S'        self._view_environment = None'
p182
sI419
S'        self._custom_commit = None'
p183
sI420
S'        self._custom_rollback = None'
p184
sI421
S"        self.generic_patterns = ['*']"
p185
sI412
S"        self.flash = ''            # used by the default view layout"
p186
sI413
S'        self.meta = Storage()      # used by web2py_ajax.html'
p187
sI414
S'        self.menu = []             # used by the default view layout'
p188
sI415
S'        self.files = []            # used by web2py_ajax.html'
p189
ssg83
S'(f=<function main>)'
p190
sg85
S'<lambda>'
p191
sa(dp192
g61
S'/home/tanguyl/Documents/projetPython/web2py/applications/TEMPLATE/controllers/default.py'
p193
sg63
(dp194
S'global initData'
p195
S'<function initData>'
p196
ssg73
I67
sg74
(dp197
I64
S'    db.Produits_chimiques.Conseils_de_prudence.represent = lambda val,row:boo0(val,row,db)'
p198
sI65
S'    rows = db(table).select()'
p199
sI66
S'    if (len(rows) == 0):'
p200
sI67
S'        initData()'
p201
sI68
S'    form = forming(table)'
p202
sI69
S'    records=SQLFORM.grid(table)'
p203
sI70
S'    return dict(form=form, records=records)'
p204
sI71
S'def initData():'
p205
sI62
S'    db = getDb()'
p206
sI63
S'    table = getTable(db)'
p207
ssg83
S'()'
p208
sg85
S'main'
p209
sa(dp210
g61
S'/home/tanguyl/Documents/projetPython/web2py/applications/TEMPLATE/controllers/default.py'
p211
sg63
(dp212
S'global sys'
p213
S"<module 'sys' (built-in)>"
p214
sS'sys.exit'
p215
S'<built-in function exit>'
p216
ssg73
I76
sg74
(dp217
I67
S'        initData()'
p218
sI68
S'    form = forming(table)'
p219
sI69
S'    records=SQLFORM.grid(table)'
p220
sI70
S'    return dict(form=form, records=records)'
p221
sI71
S'def initData():'
p222
sI72
S'    from subprocess import check_call'
p223
sI73
S'    try:'
p224
sI74
S'        subprocess.check_call(["python","/home/tanguyl/Documents/projetPython/scriptInit.py","/home/tanguyl/Documents/projetPython/Inventaireproduitschimiques.xlsx"])'
p225
sI75
S'    except subprocess.CalledProcessError:'
p226
sI76
S'        sys.exit("Une erreur vient de se produire : scriptInit.py est-il pr\xc3\xa9sent?")'
p227
ssg83
S'()'
p228
sg85
S'initData'
p229
sasS'pyver'
p230
S'Python 2.7.3: /usr/bin/python (prefix: /usr)'
p231
sS'session'
p232
g56
(S's\x1a\x00\x00\x00<div><table></table></div>'
tRp233
sS'etype'
p234
S"<type 'exceptions.SystemExit'>"
p235
sS'date'
p236
S'Wed Apr 20 17:35:34 2016'
p237
sS'response'
p238
g56
(S's\xfe\x1d\x00\x00<div><table><tr><td style="font-weight:bold;vertical-align:top;">body</td><td style="vertical-align:top;">:</td><td><div>&lt;cStringIO.StringO object at 0x2b0a538&gt;</div></td></tr><tr><td style="font-weight:bold;vertical-align:top;">cookies</td><td style="vertical-align:top;">:</td><td><div><table><tr><td style="font-weight:bold;vertical-align:top;">session_id_template</td><td style="vertical-align:top;">:</td><td><div>127.0.0.1-bb0754ae-4de9-47f8-8b98-1eb2452b29d8<table><tr><td style="font-weight:bold;vertical-align:top;">comment</td><td style="vertical-align:top;">:</td><td><div></div></td></tr><tr><td style="font-weight:bold;vertical-align:top;">domain</td><td style="vertical-align:top;">:</td><td><div></div></td></tr><tr><td style="font-weight:bold;vertical-align:top;">expires</td><td style="vertical-align:top;">:</td><td><div></div></td></tr><tr><td style="font-weight:bold;vertical-align:top;">httponly</td><td style="vertical-align:top;">:</td><td><div></div></td></tr><tr><td style="font-weight:bold;vertical-align:top;">max-age</td><td style="vertical-align:top;">:</td><td><div></div></td></tr><tr><td style="font-weight:bold;vertical-align:top;">path</td><td style="vertical-align:top;">:</td><td><div>/</div></td></tr><tr><td style="font-weight:bold;vertical-align:top;">secure</td><td style="vertical-align:top;">:</td><td><div></div></td></tr><tr><td style="font-weight:bold;vertical-align:top;">version</td><td style="vertical-align:top;">:</td><td><div></div></td></tr></table></div></td></tr></table></div></td></tr><tr><td style="font-weight:bold;vertical-align:top;">delimiters</td><td style="vertical-align:top;">:</td><td><div><table><tr><td><div>{{</div></td></tr><tr><td><div>}}</div></td></tr></table></div></td></tr><tr><td style="font-weight:bold;vertical-align:top;">files</td><td style="vertical-align:top;">:</td><td><div><table></table></div></td></tr><tr><td style="font-weight:bold;vertical-align:top;">flash</td><td style="vertical-align:top;">:</td><td><div></div></td></tr><tr><td style="font-weight:bold;vertical-align:top;">form_label_separator</td><td style="vertical-align:top;">:</td><td><div></div></td></tr><tr><td style="font-weight:bold;vertical-align:top;">formstyle</td><td style="vertical-align:top;">:</td><td><div>bootstrap3_inline</div></td></tr><tr><td style="font-weight:bold;vertical-align:top;">generic_patterns</td><td style="vertical-align:top;">:</td><td><div><table><tr><td><div>*</div></td></tr></table></div></td></tr><tr><td style="font-weight:bold;vertical-align:top;">google_analytics_id</td><td style="vertical-align:top;">:</td><td><div>None</div></td></tr><tr><td style="font-weight:bold;vertical-align:top;">headers</td><td style="vertical-align:top;">:</td><td><div><table><tr><td style="font-weight:bold;vertical-align:top;">X-Powered-By</td><td style="vertical-align:top;">:</td><td><div>web2py</div></td></tr></table></div></td></tr><tr><td style="font-weight:bold;vertical-align:top;">logo</td><td style="vertical-align:top;">:</td><td><div><a class="navbar-brand" href="http://intraiins.u-bordeaux2.fr/" id="web2py-logo"><b>IINS</b>&trade;&nbsp;</a></div></td></tr><tr><td style="font-weight:bold;vertical-align:top;">menu</td><td style="vertical-align:top;">:</td><td><div><table><tr><td><div><table><tr><td><div>Admin</div></td></tr><tr><td><div>False</div></td></tr><tr><td><div>/admin</div></td></tr><tr><td><div><table></table></div></td></tr></table></div></td></tr><tr><td><div><table><tr><td><div>Main</div></td></tr><tr><td><div>False</div></td></tr><tr><td><div>/main</div></td></tr></table></div></td></tr></table></div></td></tr><tr><td style="font-weight:bold;vertical-align:top;">meta</td><td style="vertical-align:top;">:</td><td><div><table><tr><td style="font-weight:bold;vertical-align:top;">author</td><td style="vertical-align:top;">:</td><td><div>Chambon Laurent&lt;Laurent.chambon@u-bordeaux.fr&gt;Jourde Tanguy&lt;tanguy.jourde@etu.u-bordeaux.fr&gt;</div></td></tr><tr><td style="font-weight:bold;vertical-align:top;">description</td><td style="vertical-align:top;">:</td><td><div>a cool new App</div></td></tr><tr><td style="font-weight:bold;vertical-align:top;">generator</td><td style="vertical-align:top;">:</td><td><div>Web2py Web Framework</div></td></tr><tr><td style="font-weight:bold;vertical-align:top;">keywords</td><td style="vertical-align:top;">:</td><td><div>manage products</div></td></tr></table></div></td></tr><tr><td style="font-weight:bold;vertical-align:top;">models_to_run</td><td style="vertical-align:top;">:</td><td><div><table><tr><td><div>^\\w+\\.py$</div></td></tr><tr><td><div>^default/\\w+\\.py$</div></td></tr><tr><td><div>^default/main/\\w+\\.py$</div></td></tr></table></div></td></tr><tr><td style="font-weight:bold;vertical-align:top;">postprocessing</td><td style="vertical-align:top;">:</td><td><div><table></table></div></td></tr><tr><td style="font-weight:bold;vertical-align:top;">session_client</td><td style="vertical-align:top;">:</td><td><div>127.0.0.1</div></td></tr><tr><td style="font-weight:bold;vertical-align:top;">session_cookie_compression_level</td><td style="vertical-align:top;">:</td><td><div>None</div></td></tr><tr><td style="font-weight:bold;vertical-align:top;">session_cookie_expires</td><td style="vertical-align:top;">:</td><td><div>None</div></td></tr><tr><td style="font-weight:bold;vertical-align:top;">session_data_name</td><td style="vertical-align:top;">:</td><td><div>session_data_template</div></td></tr><tr><td style="font-weight:bold;vertical-align:top;">session_file</td><td style="vertical-align:top;">:</td><td><div>&lt;open file &#x27;/home/tanguyl/Documents/projetPython/web2py/applications/TEMPLATE/sessions/0fc/118/127.0.0.1-bb0754ae-4de9-47f8-8b98-1eb2452b29d8&#x27;, mode &#x27;rb+&#x27; at 0x22c1c00&gt;</div></td></tr><tr><td style="font-weight:bold;vertical-align:top;">session_filename</td><td style="vertical-align:top;">:</td><td><div>/home/tanguyl/Documents/projetPython/web2py/applications/TEMPLATE/sessions/127.0.0.1-bb0754ae-4de9-47f8-8b98-1eb2452b29d8</div></td></tr><tr><td style="font-weight:bold;vertical-align:top;">session_hash</td><td style="vertical-align:top;">:</td><td><div>a3845694064fa154839abc2b8fc6b0bd</div></td></tr><tr><td style="font-weight:bold;vertical-align:top;">session_id</td><td style="vertical-align:top;">:</td><td><div>127.0.0.1-bb0754ae-4de9-47f8-8b98-1eb2452b29d8</div></td></tr><tr><td style="font-weight:bold;vertical-align:top;">session_id_name</td><td style="vertical-align:top;">:</td><td><div>session_id_template</div></td></tr><tr><td style="font-weight:bold;vertical-align:top;">session_locked</td><td style="vertical-align:top;">:</td><td><div>True</div></td></tr><tr><td style="font-weight:bold;vertical-align:top;">session_masterapp</td><td style="vertical-align:top;">:</td><td><div>TEMPLATE</div></td></tr><tr><td style="font-weight:bold;vertical-align:top;">session_new</td><td style="vertical-align:top;">:</td><td><div>False</div></td></tr><tr><td style="font-weight:bold;vertical-align:top;">session_storage_type</td><td style="vertical-align:top;">:</td><td><div>file</div></td></tr><tr><td style="font-weight:bold;vertical-align:top;">status</td><td style="vertical-align:top;">:</td><td><div>200</div></td></tr><tr><td style="font-weight:bold;vertical-align:top;">subtitle</td><td style="vertical-align:top;">:</td><td><div></div></td></tr><tr><td style="font-weight:bold;vertical-align:top;">title</td><td style="vertical-align:top;">:</td><td><div>Template</div></td></tr><tr><td style="font-weight:bold;vertical-align:top;">view</td><td style="vertical-align:top;">:</td><td><div>default/main.html</div></td></tr></table></div>'
tRp239
sS'locals'
p240
(dp241
S'check_call'
p242
S'<function check_call>'
p243
sssS'traceback'
p244
S'Traceback (most recent call last):\n  File "/home/tanguyl/Documents/projetPython/web2py/gluon/main.py", line 449, in wsgibase\n    serve_controller(request, response, session)\n  File "/home/tanguyl/Documents/projetPython/web2py/gluon/main.py", line 187, in serve_controller\n    page = run_controller_in(request.controller, request.function, environment)\n  File "/home/tanguyl/Documents/projetPython/web2py/gluon/compileapp.py", line 640, in run_controller_in\n    restricted(code, environment, filename)\n  File "/home/tanguyl/Documents/projetPython/web2py/gluon/restricted.py", line 227, in restricted\n    exec ccode in environment\n  File "/home/tanguyl/Documents/projetPython/web2py/applications/TEMPLATE/controllers/default.py", line 77, in <module>\n  File "/home/tanguyl/Documents/projetPython/web2py/gluon/globals.py", line 417, in <lambda>\n    self._caller = lambda f: f()\n  File "/home/tanguyl/Documents/projetPython/web2py/applications/TEMPLATE/controllers/default.py", line 67, in main\n    initData()\n  File "/home/tanguyl/Documents/projetPython/web2py/applications/TEMPLATE/controllers/default.py", line 76, in initData\n    sys.exit("Une erreur vient de se produire : scriptInit.py est-il pr\xc3\xa9sent?")\nSystemExit: Une erreur vient de se produire : scriptInit.py est-il pr\xc3\xa9sent?\n'
p245
s.