(dp1
S'Produits_chimiques'
p2
(dp3
S'length'
p4
I512
sS'unique'
p5
I00
sS'sortable'
p6
I1
sS'sql'
p7
S'INTEGER NOT NULL'
p8
sS'notnull'
p9
I01
sS'type'
p10
S'integer'
p11
ssS'Conseils_de_prudence'
p12
(dp13
g4
I512
sg5
I00
sg6
I2
sg7
S'INTEGER NOT NULL'
p14
sg9
I01
sg10
g11
ss.