(dp1
S'output'
p2
S'<class \'sqlite3.OperationalError\'> near "\',\'": syntax error'
p3
sS'layer'
p4
S'/home/tanguyl/Documents/projetPython/web2py/applications/TEMPLATE/models/db.py'
p5
sS'code'
p6
S'# -*- coding: utf-8 -*-\nimport glob,os\n#########################################################################\n## This scaffolding model makes your app work on Google App Engine too\n## File is released under public domain and you can use without limitations\n#########################################################################\n\n## if SSL/HTTPS is properly configured and you want all HTTP requests to\n## be redirected to HTTPS, uncomment the line below:\n# request.requires_https()\n\n## app configuration made easy. Look inside private/appconfig.ini\nfrom gluon.contrib.appconfig import AppConfig\n## once in production, remove reload=True to gain full speed\nmyconf = AppConfig(reload=True)\n\n\nif not request.env.web2py_runtime_gae:\n    ## if NOT running on Google App Engine use SQLite or other DB\n    #db = DAL(myconf.take(\'db.uri\'), pool_size=myconf.take(\'db.pool_size\', cast=int), check_reserved=[\'all\'])\n    #db = DAL(\'sqlite://storage.sqlite\')\n    db = DAL(\'sqlite://\'+glob.glob(os.getcwd()+\'/applications/TEMPLATE/tmp/*db\')[0])\nelse:\n    ## connect to Google BigTable (optional \'google:datastore://namespace\')\n    db = DAL(\'google:datastore+ndb\')\n    ## store sessions and tickets there\n    session.connect(request, response, db=db)\n    ## or store session in Memcache, Redis, etc.\n    ## from gluon.contrib.memdb import MEMDB\n    ## from google.appengine.api.memcache import Client\n    ## session.connect(request, response, db = MEMDB(Client()))\n\n## by default give a view/generic.extension to all actions from localhost\n## none otherwise. a pattern can be \'controller/function.extension\'\nresponse.generic_patterns = [\'*\'] if request.is_local else []\n## choose a style for forms\nresponse.formstyle = myconf.take(\'forms.formstyle\')  # or \'bootstrap3_stacked\' or \'bootstrap2\' or other\nresponse.form_label_separator = myconf.take(\'forms.separator\')\n\n\n## (optional) optimize handling of static files\n# response.optimize_css = \'concat,minify,inline\'\n# response.optimize_js = \'concat,minify,inline\'\n## (optional) static assets folder versioning\n# response.static_version = \'0.0.0\'\n#########################################################################\n## Here is sample code if you need for\n## - email capabilities\n## - authentication (registration, login, logout, ... )\n## - authorization (role based authorization)\n## - services (xml, csv, json, xmlrpc, jsonrpc, amf, rss)\n## - old style crud actions\n## (more options discussed in gluon/tools.py)\n#########################################################################\n\nfrom gluon.tools import Auth, Service, PluginManager\n\n#auth = Auth(db)\n# pour utiliser serveur cas bordeaux\nauth = Auth(db,cas_provider = \'https://cas.u-bordeaux.fr\')\nservice = Service()\nplugins = PluginManager()\n\n## create all tables needed by auth if not custom tables\nauth.define_tables(username=False, signature=False)\n\n## configure email\nfrom gluon.tools import Mail\nmail = Mail()\nmail.settings.server = \'127.0.0.1:25\'\nmail.settings.sender = \'service@service.u-bordeaux2.fr\'\nmail.settings.login = None\n\n## configure auth policy\nauth.settings.registration_requires_verification = False\nauth.settings.registration_requires_approval = False\nauth.settings.reset_password_requires_verification = True\n\n#########################################################################\n## Define your tables below (or better in another model file) for example\n##\n## >>> db.define_table(\'mytable\',Field(\'myfield\',\'string\'))\n##\n## Fields can be \'string\',\'text\',\'password\',\'integer\',\'double\',\'boolean\'\n##       \'date\',\'time\',\'datetime\',\'blob\',\'upload\', \'reference TABLENAME\'\n## There is an implicit \'id integer autoincrement\' field\n## Consult manual for more options, validators, etc.\n##\n## More API examples for controllers:\n##\n## >>> db.mytable.insert(myfield=\'value\')\n## >>> rows=db(db.mytable.myfield==\'value\').select(db.mytable.ALL)\n## >>> for row in rows: print row.id, row.myfield\n#########################################################################\n\n## after defining tables, uncomment below to enable auditing\n# auth.enable_record_versioning(db)\n\n# DEFINE TABLE HERE\n\ndb.define_table("Produits_chimiques",Field("Nom_francais"),Field("Nom_anglais"),Field("Synonyme"),Field("N_CAS"),Field("Formule"),Field("Masse_molaire"),Field("Forme"),Field("Symbole"),Field("Mentions_de_danger"),Field("Conseils_de_prudence"),Field("FDS_piece_jointe"),Field("Hazard_statements"),Field("Precautionary_tatements"),Field("MSDS_piece_jointe"),Field("Lien_FDS"),Field("Lien_MSDS"))\ndb.executesql("INSERT INTO Produits_chimiques(Nom_francais,Nom_anglais,Synonyme,N_CAS,Formule,Masse_molaire,Forme,Symbole,Mentions_de_danger,Conseils_de_prudence,FDS_piece_jointe,Hazard_statements,Precautionary_tatements,MSDS_piece_jointe,Lien_FDS,Lien_MSDS) VALUES(\'(+)-Bicuculline\',\'(+)-Bicuculline\',\'\',\'485-49-4\',\'C20H17NO6\',\'367,35 g/mol\',\'Solide\',\'SGH06 | SGH09\',\'H300 | H311 | H331 | H400\',\'P261 | P264 | P273 | P280 | P301+P310 | P311\',\'(+)-Bicuculline\',\'H300 | H311 | H331 | H400\',\'P261 | P264 | P273 | P280 | P301+P310 | P311\',\'(+)-Bicuculline_(anglais)\',\'http://www.sigmaaldrich.com/MSDS/MSDS/DisplayMSDSPage.do?country=FR&language=FR&productNumber=14340&brand=SIGMA&PageToGoToURL=http%3A%2F%2Fwww.sigmaaldrich.com%2Fcatalog%2Fproduct%2Fsigma%2F14340%3Flang%3Dfr\',\'http://www.sigmaaldrich.com/MSDS/MSDS/DisplayMSDSPage.do?country=FR&language=EN-generic&productNumber=14340&brand=SIGMA&PageToGoToURL=http%3A%2F%2Fwww.sigmaaldrich.com%2Fcatalog%2Fproduct%2Fsigma%2F14340%3Flang%3Dfr\')")\ndb.executesql("INSERT INTO Produits_chimiques(Nom_francais,Nom_anglais,Synonyme,N_CAS,Formule,Masse_molaire,Forme,Symbole,Mentions_de_danger,Conseils_de_prudence,FDS_piece_jointe,Hazard_statements,Precautionary_tatements,MSDS_piece_jointe,Lien_FDS,Lien_MSDS) VALUES(\'(\xc2\xb1)-AMPA\',\'(\xc2\xb1)-AMPA\',\'(\xc2\xb1)-\xce\xb1-Amino-3-hydroxy-5-methylisoxazole-4-propionic acidhydrate\',\'74341-63-2\',\'C7H10N2O4\',\'186,17 g/mol\',\'Solide\',\'\',\'\',\'\',\'(\xc2\xb1)-AMPA\',\'\',\'\',\'(\xc2\xb1)-AMPA_(anglais)\',\'http://www.sigmaaldrich.com/MSDS/MSDS/DisplayMSDSPage.do?country=FR&language=fr&productNumber=A6816&brand=SIGMA&PageToGoToURL=http%3A%2F%2Fwww.sigmaaldrich.com%2Fcatalog%2Fproduct%2Fsigma%2Fa6816%3Flang%3Dfr\',\'http://www.sigmaaldrich.com/MSDS/MSDS/DisplayMSDSPage.do?country=FR&language=EN-generic&productNumber=A6816&brand=SIGMA&PageToGoToURL=http%3A%2F%2Fwww.sigmaaldrich.com%2Fcatalog%2Fproduct%2Fsigma%2Fa6816%3Flang%3Dfr\')")\ndb.executesql("INSERT INTO Produits_chimiques(Nom_francais,Nom_anglais,Synonyme,N_CAS,Formule,Masse_molaire,Forme,Symbole,Mentions_de_danger,Conseils_de_prudence,FDS_piece_jointe,Hazard_statements,Precautionary_tatements,MSDS_piece_jointe,Lien_FDS,Lien_MSDS) VALUES(\'\',\'(\xc2\xb1)-Nipecotic acid\',\'(\xc2\xb1)-3-Piperidine carboxylic acid\',\'60252-41-7\',\'C6H11NO2\',\'129,16g/mol\',\'Solide\',\'\',\'\',\'\',\'\',\'\',\'\',\'(\xc2\xb1)-Nipecotic_acid_(anglais)\',\'\',\'\')")\ndb.executesql("INSERT INTO Produits_chimiques(Nom_francais,Nom_anglais,Synonyme,N_CAS,Formule,Masse_molaire,Forme,Symbole,Mentions_de_danger,Conseils_de_prudence,FDS_piece_jointe,Hazard_statements,Precautionary_tatements,MSDS_piece_jointe,Lien_FDS,Lien_MSDS) VALUES(\'(\xc2\xb1)-\xce\xb1-Tocopherol\',\'(\xc2\xb1)-\xce\xb1-Tocopherol\',\'Vitamin E | DL-all-rac-\xce\xb1-Tocopherol\',\'10191-41-0\',\'C29H50O2\',\'430,71 g/mol\',\'Solide\',\'\',\'\',\'\',\'(\xc2\xb1)-\xce\xb1-Tocopherol\',\'\',\'\',\'(\xc2\xb1)-\xce\xb1-Tocopherol_(anglais)\',\'http://www.sigmaaldrich.com/MSDS/MSDS/DisplayMSDSPage.do?country=FR&language=fr&productNumber=T3251&brand=SIGMA&PageToGoToURL=http%3A%2F%2Fwww.sigmaaldrich.com%2Fcatalog%2Fproduct%2Fsigma%2Ft3251%3Flang%3Dfr\',\'http://www.sigmaaldrich.com/MSDS/MSDS/DisplayMSDSPage.do?country=FR&language=EN-generic&productNumber=T3251&brand=SIGMA&PageToGoToURL=http%3A%2F%2Fwww.sigmaaldrich.com%2Fcatalog%2Fproduct%2Fsigma%2Ft3251%3Flang%3Dfr\')")\ndb.executesql("INSERT INTO Produits_chimiques(Nom_francais,Nom_anglais,Synonyme,N_CAS,Formule,Masse_molaire,Forme,Symbole,Mentions_de_danger,Conseils_de_prudence,FDS_piece_jointe,Hazard_statements,Precautionary_tatements,MSDS_piece_jointe,Lien_FDS,Lien_MSDS) VALUES(\'(RS)-Baclofen\',\'\',\'(RS)-4-Amino-3-(4-chlorophenyl)butanoic acid\',\'1134-47-0\',\'C10H12CINO2\',\'213,66g/mol\',\'Solide\',\'SGH06\',\'H301\',\'P264 | P301+P310\',\'\',\'H301\',\'P264 | P301+P310\',\'(RS)-Baclofen_(anglais)\',\'\',\'\')")\ndb.executesql("INSERT INTO Produits_chimiques(Nom_francais,Nom_anglais,Synonyme,N_CAS,Formule,Masse_molaire,Forme,Symbole,Mentions_de_danger,Conseils_de_prudence,FDS_piece_jointe,Hazard_statements,Precautionary_tatements,MSDS_piece_jointe,Lien_FDS,Lien_MSDS) VALUES(\'\',\'(S)-(-)-5-Iodowillardiine\',\'(2S)-2-Amino-3-(5-iodo-2,4-dioxopyrimidin-1-yl)propanoic acid\',\'140187-25-3\',\'C7H8IN3O4\',\'325,06g/mol\',\'Solide\',\'\',\'\',\'\',\'\',\'\',\'\',\'(S)-(-)-5-Iodowillardiine_(anglais)\',\'\',\'\')")\ndb.executesql("INSERT INTO Produits_chimiques(Nom_francais,Nom_anglais,Synonyme,N_CAS,Formule,Masse_molaire,Forme,Symbole,Mentions_de_danger,Conseils_de_prudence,FDS_piece_jointe,Hazard_statements,Precautionary_tatements,MSDS_piece_jointe,Lien_FDS,Lien_MSDS) VALUES(\'1,3-Bis-(diph\xc3\xa9nylphosphino)-propane\',\'\',\'dppp\',\'6737-42-4\',\'C27H26P2\',\'412,44 g/mol\',\'Solide\',\'SGH07\',\'H315 |H319 | H335\',\'P261 | P305+P351+P338\',\'1,3-Bis-(diph\xc3\xa9nylphosphino)-propane\',\'H315 |H319 | H335\',\'P261 | P305+P351+P338\',\'1,3-Bis-(diphenylphosphino)-propane_(anglais)\',\'http://www.sigmaaldrich.com/MSDS/MSDS/DisplayMSDSPage.do?country=FR&language=fr&productNumber=262048&brand=ALDRICH&PageToGoToURL=http%3A%2F%2Fwww.sigmaaldrich.com%2Fcatalog%2Fproduct%2Faldrich%2F262048%3Flang%3Dfr\',\'http://www.sigmaaldrich.com/MSDS/MSDS/DisplayMSDSPage.do?country=FR&language=EN-generic&productNumber=262048&brand=ALDRICH&PageToGoToURL=http%3A%2F%2Fwww.sigmaaldrich.com%2Fcatalog%2Fproduct%2Faldrich%2F262048%3Flang%3Dfr\')")\ndb.executesql("INSERT INTO Produits_chimiques(Nom_francais,Nom_anglais,Synonyme,N_CAS,Formule,Masse_molaire,Forme,Symbole,Mentions_de_danger,Conseils_de_prudence,FDS_piece_jointe,Hazard_statements,Precautionary_tatements,MSDS_piece_jointe,Lien_FDS,Lien_MSDS) VALUES(\'1,4-Phenylenediamine\',\'\',\'1,4-Diaminobenzene | 1,4-Benzenediamine | p-Phenylenediamine\',\'106-50-3\',\'C6H8N2\',\'108,14 g/mol\',\'Solide\',\'SGH06 | SGH09\',\'H301 | H311 | H317 | H319 |H331 | H410\',\'P261 | P273 | P280 | P301+P310 | P305+P351+P338\',\'1,4-Phenylenediamine\',\'H301 | H311 | H317 | H319 |H331 | H410\',\'P261 | P273 | P280 | P301+P310 | P305+P351+P338\',\'1,4-Phenylenediamine_(anglais)\',\'http://www.sigmaaldrich.com/MSDS/MSDS/DisplayMSDSPage.do?country=FR&language=fr&productNumber=78429&brand=ALDRICH&PageToGoToURL=http%3A%2F%2Fwww.sigmaaldrich.com%2Fcatalog%2Fproduct%2Faldrich%2F78429%3Flang%3Dfr\',\'http://www.sigmaaldrich.com/MSDS/MSDS/DisplayMSDSPage.do?country=FR&language=EN-generic&productNumber=78429&brand=ALDRICH&PageToGoToURL=http%3A%2F%2Fwww.sigmaaldrich.com%2Fcatalog%2Fproduct%2Faldrich%2F78429%3Flang%3Dfr\')")\ndb.executesql("INSERT INTO Produits_chimiques(Nom_francais,Nom_anglais,Synonyme,N_CAS,Formule,Masse_molaire,Forme,Symbole,Mentions_de_danger,Conseils_de_prudence,FDS_piece_jointe,Hazard_statements,Precautionary_tatements,MSDS_piece_jointe,Lien_FDS,Lien_MSDS) VALUES(\'2,2\'-Thiodi\xc3\xa9thanol\',\'2,2\'-Thiodiethanol\',\'2,2\xe2\x80\xb2-Thiobis(ethanol) | Bis(2-hydroxyethyl) sulfide | Thiodiethylene glycol | Thiodiglycol\',\'111-48-8\',\'C4H10O2S\',\'122,19 g/mol\',\'Solide\',\'SGH07\',\'H319\',\'P305+P351+P338\',\'2,2\'-Thiodi\xc3\xa9thanol\',\'H319\',\'P305+P351+P338\',\'2,2\'-Thiodiethanol_(anglais)\',\'http://www.sigmaaldrich.com/MSDS/MSDS/DisplayMSDSPage.do?country=FR&language=fr&productNumber=166782&brand=ALDRICH&PageToGoToURL=http%3A%2F%2Fwww.sigmaaldrich.com%2Fcatalog%2Fproduct%2Faldrich%2F166782%3Flang%3Dfr\',\'http://www.sigmaaldrich.com/MSDS/MSDS/DisplayMSDSPage.do?country=FR&language=EN-generic&productNumber=166782&brand=ALDRICH&PageToGoToURL=http%3A%2F%2Fwww.sigmaaldrich.com%2Fcatalog%2Fproduct%2Faldrich%2F166782%3Flang%3Dfr\')")\ndb.executesql("INSERT INTO Produits_chimiques(Nom_francais,Nom_anglais,Synonyme,N_CAS,Formule,Masse_molaire,Forme,Symbole,Mentions_de_danger,Conseils_de_prudence,FDS_piece_jointe,Hazard_statements,Precautionary_tatements,MSDS_piece_jointe,Lien_FDS,Lien_MSDS) VALUES(\'\',\'2-Bromohexadecanoic acid\',\'2-Bromopalmitic acid\',\'18263-25-7\',\'C16H31BrO2\',\'335,32 g/mol\',\'Solide\',\'SGH07\',\'H315 |H319 | H335\',\'P261 | P305+P351+P338\',\'2-Bromohexadecanoic_acid\',\'H315 |H319 | H335\',\'P261 | P305+P351+P338\',\'2-Bromohexadecanoic_acid (anglais)\',\'http://www.sigmaaldrich.com/MSDS/MSDS/DisplayMSDSPage.do?country=FR&language=fr&productNumber=21604&brand=ALDRICH&PageToGoToURL=http%3A%2F%2Fwww.sigmaaldrich.com%2Fcatalog%2Fproduct%2Faldrich%2F21604%3Flang%3Dfr\',\'http://www.sigmaaldrich.com/MSDS/MSDS/DisplayMSDSPage.do?country=FR&language=EN-generic&productNumber=21604&brand=ALDRICH&PageToGoToURL=http%3A%2F%2Fwww.sigmaaldrich.com%2Fcatalog%2Fproduct%2Faldrich%2F21604%3Flang%3Dfr\')")\ndb.executesql("INSERT INTO Produits_chimiques(Nom_francais,Nom_anglais,Synonyme,N_CAS,Formule,Masse_molaire,Forme,Symbole,Mentions_de_danger,Conseils_de_prudence,FDS_piece_jointe,Hazard_statements,Precautionary_tatements,MSDS_piece_jointe,Lien_FDS,Lien_MSDS) VALUES(\'2-Chloroadenosine\',\'\',\'2-CADO | 6-Amino-2-chloropurine riboside\',\'146-77-0\',\'C10H12ClN5O4\',\'301,69 g/mol\',\'Solide\',\'\',\'\',\'\',\'2-Chloroadenosine\',\'\',\'\',\'2-Chloroadenosine_(anglais)\',\'http://www.sigmaaldrich.com/MSDS/MSDS/DisplayMSDSPage.do?country=FR&language=fr&productNumber=C5134&brand=SIGMA&PageToGoToURL=http%3A%2F%2Fwww.sigmaaldrich.com%2Fcatalog%2Fproduct%2Fsigma%2Fc5134%3Flang%3Dfr\',\'http://www.sigmaaldrich.com/MSDS/MSDS/DisplayMSDSPage.do?country=FR&language=EN-generic&productNumber=C5134&brand=SIGMA&PageToGoToURL=http%3A%2F%2Fwww.sigmaaldrich.com%2Fcatalog%2Fproduct%2Fsigma%2Fc5134%3Flang%3Dfr\')")\ndb.executesql("INSERT INTO Produits_chimiques(Nom_francais,Nom_anglais,Synonyme,N_CAS,Formule,Masse_molaire,Forme,Symbole,Mentions_de_danger,Conseils_de_prudence,FDS_piece_jointe,Hazard_statements,Precautionary_tatements,MSDS_piece_jointe,Lien_FDS,Lien_MSDS) VALUES(\'2-Mercapto-\xc3\xa9thanesulfonate de sodium\',\'Sodium 2-mercaptoethanesulfonate\',\'MESNA | HS-CoM Na | 2-Mercaptoethanesulfonic acidsodium salt | Coenzyme Msodium salt\',\'19767-45-4\',\'C2H5NaO3S2C2H5NaO3S2\',\'164,18 g/mol\',\'Solide\',\'SGH07\',\'H315 | H319 | H335\',\'P261 | P305+P351+P338\',\'2-Mercapto-\xc3\xa9thanesulfonate_de_sodium\',\'\',\'\',\'2-Mercapto-\xc3\xa9thanesulfonate_de_sodium_(anglais)\',\'http://www.sigmaaldrich.com/MSDS/MSDS/DisplayMSDSPage.do?country=FR&language=fr&productNumber=M1511&brand=SIAL&PageToGoToURL=http%3A%2F%2Fwww.sigmaaldrich.com%2Fcatalog%2Fproduct%2Fsial%2Fm1511%3Flang%3Dfr\',\'http://www.sigmaaldrich.com/MSDS/MSDS/DisplayMSDSPage.do?country=FR&language=EN-generic&productNumber=M1511&brand=SIAL&PageToGoToURL=http%3A%2F%2Fwww.sigmaaldrich.com%2Fcatalog%2Fproduct%2Fsial%2Fm1511%3Flang%3Dfr\')")\ndb.executesql("INSERT INTO Produits_chimiques(Nom_francais,Nom_anglais,Synonyme,N_CAS,Formule,Masse_molaire,Forme,Symbole,Mentions_de_danger,Conseils_de_prudence,FDS_piece_jointe,Hazard_statements,Precautionary_tatements,MSDS_piece_jointe,Lien_FDS,Lien_MSDS) VALUES(\'3,3\xc2\xb4-Diaminobenzidine\',\'\',\'DAB | 3,3\xe2\x80\xb2,4,4\xe2\x80\xb2-Biphenyltetramine | 3,3\xe2\x80\xb2,4,4\xe2\x80\xb2-Tetraaminobiphenyl\',\'91-95-2\',\'C12H14N4\',\'214,27 g/mol\',\'Solide\',\'SGH08\',\'H341 | H350\',\'P201 | P281 | P308+P313\',\'3,3\xc2\xb4-Diaminobenzidine\',\'\',\'\',\'3,3\xc2\xb4-Diaminobenzidine_(anglais)\',\'http://www.sigmaaldrich.com/MSDS/MSDS/DisplayMSDSPage.do?country=FR&language=fr&productNumber=D8001&brand=SIAL&PageToGoToURL=http%3A%2F%2Fwww.sigmaaldrich.com%2Fcatalog%2Fproduct%2Fsial%2Fd8001%3Flang%3Dfr\',\'http://www.sigmaaldrich.com/MSDS/MSDS/DisplayMSDSPage.do?country=FR&language=EN-generic&productNumber=D8001&brand=SIAL&PageToGoToURL=http%3A%2F%2Fwww.sigmaaldrich.com%2Fcatalog%2Fproduct%2Fsial%2Fd8001%3Flang%3Dfr\')")\ndb.executesql("INSERT INTO Produits_chimiques(Nom_francais,Nom_anglais,Synonyme,N_CAS,Formule,Masse_molaire,Forme,Symbole,Mentions_de_danger,Conseils_de_prudence,FDS_piece_jointe,Hazard_statements,Precautionary_tatements,MSDS_piece_jointe,Lien_FDS,Lien_MSDS) VALUES(\'3,3`-dioctadecyloxacarbocyanine perchlorate\',\'\',\'DiOC18(3) | \xe2\x80\x98DiO\xe2\x80\x99\',\'34215-57-1\',\'C53H85ClN2O6\',\'881,70 g/mol\',\'Solide\',\'SGH07\',\'H315 | H319 | H335\',\'P261 | P305+P351+P338\',\'3,3\'-Dioctadecyloxacarbocyanine_perchlorate\',\'\',\'\',\'3,3\'-Dioctadecyloxacarbocyanine_perchlorate_(anglais)\',\'http://www.sigmaaldrich.com/MSDS/MSDS/DisplayMSDSPage.do?country=FR&language=fr&productNumber=D4292&brand=SIGMA&PageToGoToURL=http%3A%2F%2Fwww.sigmaaldrich.com%2Fcatalog%2Fproduct%2Fsigma%2Fd4292%3Flang%3Dfr\',\'http://www.sigmaaldrich.com/MSDS/MSDS/PleaseWaitMSDSPage.do?language=EN-generic&country=FR&brand=SIGMA&productNumber=D4292&PageToGoToURL=http%3A%2F%2Fwww.sigmaaldrich.com%2Fcatalog%2Fproduct%2Fsigma%2Fd4292%3Flang%3Dfr\')")\n\n\n\n'
p7
sS'snapshot'
p8
(dp9
S'exception'
p10
(dp11
S'__module__'
p12
S"'sqlite3'"
p13
sS'__getslice__'
p14
S"<method-wrapper '__getslice__' of OperationalError object>"
p15
sS'__str__'
p16
S"<method-wrapper '__str__' of OperationalError object>"
p17
sS'__reduce__'
p18
S'<built-in method __reduce__ of OperationalError object>'
p19
sS'__dict__'
p20
S'{}'
p21
sS'__sizeof__'
p22
S'<built-in method __sizeof__ of OperationalError object>'
p23
sS'__weakref__'
p24
S'None'
p25
sS'__init__'
p26
S"<method-wrapper '__init__' of OperationalError object>"
p27
sS'__setattr__'
p28
S"<method-wrapper '__setattr__' of OperationalError object>"
p29
sS'__reduce_ex__'
p30
S'<built-in method __reduce_ex__ of OperationalError object>'
p31
sS'__new__'
p32
S'<built-in method __new__ of type object>'
p33
sS'__format__'
p34
S'<built-in method __format__ of OperationalError object>'
p35
sS'__class__'
p36
S"<class 'sqlite3.OperationalError'>"
p37
sS'__doc__'
p38
S'None'
p39
sS'__getitem__'
p40
S"<method-wrapper '__getitem__' of OperationalError object>"
p41
sS'__setstate__'
p42
S'<built-in method __setstate__ of OperationalError object>'
p43
sS'__getattribute__'
p44
S"<method-wrapper '__getattribute__' of OperationalError object>"
p45
sS'args'
p46
S'(\'near "\\\',\\\'": syntax error\',)'
p47
sS'__subclasshook__'
p48
S'<built-in method __subclasshook__ of type object>'
p49
sS'__unicode__'
p50
S'<built-in method __unicode__ of OperationalError object>'
p51
sS'__delattr__'
p52
S"<method-wrapper '__delattr__' of OperationalError object>"
p53
sS'__repr__'
p54
S"<method-wrapper '__repr__' of OperationalError object>"
p55
sS'__hash__'
p56
S"<method-wrapper '__hash__' of OperationalError object>"
p57
ssS'evalue'
p58
S'near "\',\'": syntax error'
p59
sS'request'
p60
cgluon.html
XML_unpickle
p61
(S'sU[\x00\x00<div><table><tr><td style="font-weight:bold;vertical-align:top;">ajax</td><td style="vertical-align:top;">:</td><td><div>False</div></td></tr><tr><td style="font-weight:bold;vertical-align:top;">application</td><td style="vertical-align:top;">:</td><td><div>TEMPLATE</div></td></tr><tr><td style="font-weight:bold;vertical-align:top;">args</td><td style="vertical-align:top;">:</td><td><div><table></table></div></td></tr><tr><td style="font-weight:bold;vertical-align:top;">cid</td><td style="vertical-align:top;">:</td><td><div>None</div></td></tr><tr><td style="font-weight:bold;vertical-align:top;">client</td><td style="vertical-align:top;">:</td><td><div>127.0.0.1</div></td></tr><tr><td style="font-weight:bold;vertical-align:top;">controller</td><td style="vertical-align:top;">:</td><td><div>default</div></td></tr><tr><td style="font-weight:bold;vertical-align:top;">cookies</td><td style="vertical-align:top;">:</td><td><div><table><tr><td style="font-weight:bold;vertical-align:top;">session_id_admin</td><td style="vertical-align:top;">:</td><td><div>127.0.0.1-915937cb-f193-4fd1-bd31-e3c3a9ef47b3<table><tr><td style="font-weight:bold;vertical-align:top;">comment</td><td style="vertical-align:top;">:</td><td><div></div></td></tr><tr><td style="font-weight:bold;vertical-align:top;">domain</td><td style="vertical-align:top;">:</td><td><div></div></td></tr><tr><td style="font-weight:bold;vertical-align:top;">expires</td><td style="vertical-align:top;">:</td><td><div></div></td></tr><tr><td style="font-weight:bold;vertical-align:top;">httponly</td><td style="vertical-align:top;">:</td><td><div></div></td></tr><tr><td style="font-weight:bold;vertical-align:top;">max-age</td><td style="vertical-align:top;">:</td><td><div></div></td></tr><tr><td style="font-weight:bold;vertical-align:top;">path</td><td style="vertical-align:top;">:</td><td><div></div></td></tr><tr><td style="font-weight:bold;vertical-align:top;">secure</td><td style="vertical-align:top;">:</td><td><div></div></td></tr><tr><td style="font-weight:bold;vertical-align:top;">version</td><td style="vertical-align:top;">:</td><td><div></div></td></tr></table></div></td></tr><tr><td style="font-weight:bold;vertical-align:top;">session_id_template</td><td style="vertical-align:top;">:</td><td><div>127.0.0.1-88ee511a-e27e-4202-b4c5-8c833adea66f<table><tr><td style="font-weight:bold;vertical-align:top;">comment</td><td style="vertical-align:top;">:</td><td><div></div></td></tr><tr><td style="font-weight:bold;vertical-align:top;">domain</td><td style="vertical-align:top;">:</td><td><div></div></td></tr><tr><td style="font-weight:bold;vertical-align:top;">expires</td><td style="vertical-align:top;">:</td><td><div></div></td></tr><tr><td style="font-weight:bold;vertical-align:top;">httponly</td><td style="vertical-align:top;">:</td><td><div></div></td></tr><tr><td style="font-weight:bold;vertical-align:top;">max-age</td><td style="vertical-align:top;">:</td><td><div></div></td></tr><tr><td style="font-weight:bold;vertical-align:top;">path</td><td style="vertical-align:top;">:</td><td><div></div></td></tr><tr><td style="font-weight:bold;vertical-align:top;">secure</td><td style="vertical-align:top;">:</td><td><div></div></td></tr><tr><td style="font-weight:bold;vertical-align:top;">version</td><td style="vertical-align:top;">:</td><td><div></div></td></tr></table></div></td></tr><tr><td style="font-weight:bold;vertical-align:top;">session_id_welcome</td><td style="vertical-align:top;">:</td><td><div>127.0.0.1-76c273a7-d6c0-4cd9-9d8a-3bf9e16c1e2a<table><tr><td style="font-weight:bold;vertical-align:top;">comment</td><td style="vertical-align:top;">:</td><td><div></div></td></tr><tr><td style="font-weight:bold;vertical-align:top;">domain</td><td style="vertical-align:top;">:</td><td><div></div></td></tr><tr><td style="font-weight:bold;vertical-align:top;">expires</td><td style="vertical-align:top;">:</td><td><div></div></td></tr><tr><td style="font-weight:bold;vertical-align:top;">httponly</td><td style="vertical-align:top;">:</td><td><div></div></td></tr><tr><td style="font-weight:bold;vertical-align:top;">max-age</td><td style="vertical-align:top;">:</td><td><div></div></td></tr><tr><td style="font-weight:bold;vertical-align:top;">path</td><td style="vertical-align:top;">:</td><td><div></div></td></tr><tr><td style="font-weight:bold;vertical-align:top;">secure</td><td style="vertical-align:top;">:</td><td><div></div></td></tr><tr><td style="font-weight:bold;vertical-align:top;">version</td><td style="vertical-align:top;">:</td><td><div></div></td></tr></table></div></td></tr></table></div></td></tr><tr><td style="font-weight:bold;vertical-align:top;">env</td><td style="vertical-align:top;">:</td><td><div><table><tr><td style="font-weight:bold;vertical-align:top;">HTTP_ACCEPT</td><td style="vertical-align:top;">:</td><td><div>text/html,application/xhtml+xml,application/xml;q=0.9,*/*;q=0.8</div></td></tr><tr><td style="font-weight:bold;vertical-align:top;">HTTP_ACCEPT_ENCODING</td><td style="vertical-align:top;">:</td><td><div>gzip, deflate</div></td></tr><tr><td style="font-weight:bold;vertical-align:top;">HTTP_ACCEPT_LANGUAGE</td><td style="vertical-align:top;">:</td><td><div>fr,fr-fr;q=0.8,en-us;q=0.5,en;q=0.3</div></td></tr><tr><td style="font-weight:bold;vertical-align:top;">HTTP_CACHE_CONTROL</td><td style="vertical-align:top;">:</td><td><div>max-age=0</div></td></tr><tr><td style="font-weight:bold;vertical-align:top;">HTTP_CONNECTION</td><td style="vertical-align:top;">:</td><td><div>keep-alive</div></td></tr><tr><td style="font-weight:bold;vertical-align:top;">HTTP_COOKIE</td><td style="vertical-align:top;">:</td><td><div>session_id_welcome=127.0.0.1-76c273a7-d6c0-4cd9-9d8a-3bf9e16c1e2a; session_id_admin=127.0.0.1-915937cb-f193-4fd1-bd31-e3c3a9ef47b3; session_id_template=127.0.0.1-88ee511a-e27e-4202-b4c5-8c833adea66f</div></td></tr><tr><td style="font-weight:bold;vertical-align:top;">HTTP_HOST</td><td style="vertical-align:top;">:</td><td><div>127.0.0.1:8000</div></td></tr><tr><td style="font-weight:bold;vertical-align:top;">HTTP_REFERER</td><td style="vertical-align:top;">:</td><td><div>http://127.0.0.1:8000/admin/default/site</div></td></tr><tr><td style="font-weight:bold;vertical-align:top;">HTTP_USER_AGENT</td><td style="vertical-align:top;">:</td><td><div>Mozilla/5.0 (X11; Linux x86_64; rv:31.0) Gecko/20100101 Firefox/31.0 Iceweasel/31.5.0</div></td></tr><tr><td style="font-weight:bold;vertical-align:top;">PATH_INFO</td><td style="vertical-align:top;">:</td><td><div>/TEMPLATE/default/index</div></td></tr><tr><td style="font-weight:bold;vertical-align:top;">QUERY_STRING</td><td style="vertical-align:top;">:</td><td><div></div></td></tr><tr><td style="font-weight:bold;vertical-align:top;">REMOTE_ADDR</td><td style="vertical-align:top;">:</td><td><div>127.0.0.1</div></td></tr><tr><td style="font-weight:bold;vertical-align:top;">REMOTE_PORT</td><td style="vertical-align:top;">:</td><td><div>35327</div></td></tr><tr><td style="font-weight:bold;vertical-align:top;">REQUEST_METHOD</td><td style="vertical-align:top;">:</td><td><div>GET</div></td></tr><tr><td style="font-weight:bold;vertical-align:top;">SCRIPT_NAME</td><td style="vertical-align:top;">:</td><td><div></div></td></tr><tr><td style="font-weight:bold;vertical-align:top;">SERVER_NAME</td><td style="vertical-align:top;">:</td><td><div>debian</div></td></tr><tr><td style="font-weight:bold;vertical-align:top;">SERVER_PORT</td><td style="vertical-align:top;">:</td><td><div>8000</div></td></tr><tr><td style="font-weight:bold;vertical-align:top;">SERVER_PROTOCOL</td><td style="vertical-align:top;">:</td><td><div>HTTP/1.1</div></td></tr><tr><td style="font-weight:bold;vertical-align:top;">SERVER_SOFTWARE</td><td style="vertical-align:top;">:</td><td><div>Rocket 1.2.6</div></td></tr><tr><td style="font-weight:bold;vertical-align:top;">app_folders</td><td style="vertical-align:top;">:</td><td><div>set([&#x27;/home/tanguyl/Documents/projetPython/web2py/applications/admin/&#x27;, &#x27;/home/tanguyl/Documents/projetPython/web2py/applications/TEMPLATE/&#x27;])</div></td></tr><tr><td style="font-weight:bold;vertical-align:top;">applications_parent</td><td style="vertical-align:top;">:</td><td><div>/home/tanguyl/Documents/projetPython/web2py</div></td></tr><tr><td style="font-weight:bold;vertical-align:top;">cmd_args</td><td style="vertical-align:top;">:</td><td><div><table></table></div></td></tr><tr><td style="font-weight:bold;vertical-align:top;">cmd_options</td><td style="vertical-align:top;">:</td><td><div>&lt;Values at 0x18aa908: {&#x27;verbose&#x27;: False, &#x27;ip&#x27;: &#x27;127.0.0.1&#x27;, &#x27;debuglevel&#x27;: 30, &#x27;with_scheduler&#x27;: False, &#x27;shutdown_timeout&#x27;: 5, &#x27;taskbar&#x27;: False, &#x27;with_coverage&#x27;: False, &#x27;pid_filename&#x27;: &#x27;httpserver.pid&#x27;, &#x27;maxthreads&#x27;: None, &#x27;softcron&#x27;: False, &#x27;server_name&#x27;: &#x27;debian&#x27;, &#x27;bpython&#x27;: False, &#x27;nogui&#x27;: False, &#x27;port&#x27;: 8000, &#x27;print_errors&#x27;: False, &#x27;extcron&#x27;: False, &#x27;runcron&#x27;: False, &#x27;run_system_tests&#x27;: False, &#x27;test&#x27;: None, &#x27;folder&#x27;: &#x27;/home/tanguyl/Documents/projetPython/web2py&#x27;, &#x27;config&#x27;: &#x27;&#x27;, &#x27;minthreads&#x27;: None, &#x27;shell&#x27;: None, &#x27;run&#x27;: &#x27;&#x27;, &#x27;log_filename&#x27;: &#x27;httpserver.log&#x27;, &#x27;profiler_dir&#x27;: None, &#x27;args&#x27;: [&#x27;&#x27;], &#x27;socket_timeout&#x27;: 5, &#x27;ssl_ca_certificate&#x27;: None, &#x27;scheduler&#x27;: None, &#x27;interfaces&#x27;: None, &#x27;ssl_private_key&#x27;: &#x27;&#x27;, &#x27;gae&#x27;: None, &#x27;password&#x27;: &#x27;******&#x27;, &#x27;request_queue_size&#x27;: 5, &#x27;ssl_certificate&#x27;: &#x27;&#x27;, &#x27;cronjob&#x27;: False, &#x27;numthreads&#x27;: None, &#x27;quiet&#x27;: False, &#x27;import_models&#x27;: False, &#x27;timeout&#x27;: 10, &#x27;plain&#x27;: False, &#x27;nobanner&#x27;: False}&gt;</div></td></tr><tr><td style="font-weight:bold;vertical-align:top;">db_sessions</td><td style="vertical-align:top;">:</td><td><div>set([])</div></td></tr><tr><td style="font-weight:bold;vertical-align:top;">debugging</td><td style="vertical-align:top;">:</td><td><div>False</div></td></tr><tr><td style="font-weight:bold;vertical-align:top;">gluon_parent</td><td style="vertical-align:top;">:</td><td><div>/home/tanguyl/Documents/projetPython/web2py</div></td></tr><tr><td style="font-weight:bold;vertical-align:top;">http_accept</td><td style="vertical-align:top;">:</td><td><div>text/html,application/xhtml+xml,application/xml;q=0.9,*/*;q=0.8</div></td></tr><tr><td style="font-weight:bold;vertical-align:top;">http_accept_encoding</td><td style="vertical-align:top;">:</td><td><div>gzip, deflate</div></td></tr><tr><td style="font-weight:bold;vertical-align:top;">http_accept_language</td><td style="vertical-align:top;">:</td><td><div>fr,fr-fr;q=0.8,en-us;q=0.5,en;q=0.3</div></td></tr><tr><td style="font-weight:bold;vertical-align:top;">http_cache_control</td><td style="vertical-align:top;">:</td><td><div>max-age=0</div></td></tr><tr><td style="font-weight:bold;vertical-align:top;">http_connection</td><td style="vertical-align:top;">:</td><td><div>keep-alive</div></td></tr><tr><td style="font-weight:bold;vertical-align:top;">http_cookie</td><td style="vertical-align:top;">:</td><td><div>session_id_welcome=127.0.0.1-76c273a7-d6c0-4cd9-9d8a-3bf9e16c1e2a; session_id_admin=127.0.0.1-915937cb-f193-4fd1-bd31-e3c3a9ef47b3; session_id_template=127.0.0.1-88ee511a-e27e-4202-b4c5-8c833adea66f</div></td></tr><tr><td style="font-weight:bold;vertical-align:top;">http_host</td><td style="vertical-align:top;">:</td><td><div>127.0.0.1:8000</div></td></tr><tr><td style="font-weight:bold;vertical-align:top;">http_referer</td><td style="vertical-align:top;">:</td><td><div>http://127.0.0.1:8000/admin/default/site</div></td></tr><tr><td style="font-weight:bold;vertical-align:top;">http_user_agent</td><td style="vertical-align:top;">:</td><td><div>Mozilla/5.0 (X11; Linux x86_64; rv:31.0) Gecko/20100101 Firefox/31.0 Iceweasel/31.5.0</div></td></tr><tr><td style="font-weight:bold;vertical-align:top;">is_jython</td><td style="vertical-align:top;">:</td><td><div>False</div></td></tr><tr><td style="font-weight:bold;vertical-align:top;">is_pypy</td><td style="vertical-align:top;">:</td><td><div>False</div></td></tr><tr><td style="font-weight:bold;vertical-align:top;">is_source</td><td style="vertical-align:top;">:</td><td><div>True</div></td></tr><tr><td style="font-weight:bold;vertical-align:top;">local_hosts</td><td style="vertical-align:top;">:</td><td><div><table><tr><td><div>::1</div></td></tr><tr><td><div>127.0.1.1</div></td></tr><tr><td><div>::ffff:127.0.0.1</div></td></tr><tr><td><div>127.0.0.1</div></td></tr><tr><td><div>debian</div></td></tr></table></div></td></tr><tr><td style="font-weight:bold;vertical-align:top;">path_info</td><td style="vertical-align:top;">:</td><td><div>/TEMPLATE/default/index</div></td></tr><tr><td style="font-weight:bold;vertical-align:top;">query_string</td><td style="vertical-align:top;">:</td><td><div></div></td></tr><tr><td style="font-weight:bold;vertical-align:top;">remote_addr</td><td style="vertical-align:top;">:</td><td><div>127.0.0.1</div></td></tr><tr><td style="font-weight:bold;vertical-align:top;">remote_port</td><td style="vertical-align:top;">:</td><td><div>35327</div></td></tr><tr><td style="font-weight:bold;vertical-align:top;">request_method</td><td style="vertical-align:top;">:</td><td><div>GET</div></td></tr><tr><td style="font-weight:bold;vertical-align:top;">request_uri</td><td style="vertical-align:top;">:</td><td><div>/TEMPLATE/default/index</div></td></tr><tr><td style="font-weight:bold;vertical-align:top;">script_name</td><td style="vertical-align:top;">:</td><td><div></div></td></tr><tr><td style="font-weight:bold;vertical-align:top;">server_name</td><td style="vertical-align:top;">:</td><td><div>debian</div></td></tr><tr><td style="font-weight:bold;vertical-align:top;">server_port</td><td style="vertical-align:top;">:</td><td><div>8000</div></td></tr><tr><td style="font-weight:bold;vertical-align:top;">server_protocol</td><td style="vertical-align:top;">:</td><td><div>HTTP/1.1</div></td></tr><tr><td style="font-weight:bold;vertical-align:top;">server_software</td><td style="vertical-align:top;">:</td><td><div>Rocket 1.2.6</div></td></tr><tr><td style="font-weight:bold;vertical-align:top;">web2py_path</td><td style="vertical-align:top;">:</td><td><div>/home/tanguyl/Documents/projetPython/web2py</div></td></tr><tr><td style="font-weight:bold;vertical-align:top;">web2py_version</td><td style="vertical-align:top;">:</td><td><div>2.14.3-stable+timestamp.2016.03.26.23.02.02</div></td></tr><tr><td style="font-weight:bold;vertical-align:top;">wsgi.errors</td><td style="vertical-align:top;">:</td><td><div>&lt;open file &#x27;&lt;stderr&gt;&#x27;, mode &#x27;w&#x27; at 0x7fe7e0285270&gt;</div></td></tr><tr><td style="font-weight:bold;vertical-align:top;">wsgi.file_wrapper</td><td style="vertical-align:top;">:</td><td><div>&lt;class wsgiref.util.FileWrapper at 0x184af58&gt;</div></td></tr><tr><td style="font-weight:bold;vertical-align:top;">wsgi.input</td><td style="vertical-align:top;">:</td><td><div>&lt;socket._fileobject object at 0x20ad7d0&gt;</div></td></tr><tr><td style="font-weight:bold;vertical-align:top;">wsgi.multiprocess</td><td style="vertical-align:top;">:</td><td><div>False</div></td></tr><tr><td style="font-weight:bold;vertical-align:top;">wsgi.multithread</td><td style="vertical-align:top;">:</td><td><div>True</div></td></tr><tr><td style="font-weight:bold;vertical-align:top;">wsgi.run_once</td><td style="vertical-align:top;">:</td><td><div>False</div></td></tr><tr><td style="font-weight:bold;vertical-align:top;">wsgi.url_scheme</td><td style="vertical-align:top;">:</td><td><div>http</div></td></tr><tr><td style="font-weight:bold;vertical-align:top;">wsgi.version</td><td style="vertical-align:top;">:</td><td><div><table><tr><td><div>1</div></td></tr><tr><td><div>0</div></td></tr></table></div></td></tr><tr><td style="font-weight:bold;vertical-align:top;">wsgi_errors</td><td style="vertical-align:top;">:</td><td><div>&lt;open file &#x27;&lt;stderr&gt;&#x27;, mode &#x27;w&#x27; at 0x7fe7e0285270&gt;</div></td></tr><tr><td style="font-weight:bold;vertical-align:top;">wsgi_file_wrapper</td><td style="vertical-align:top;">:</td><td><div>&lt;class wsgiref.util.FileWrapper at 0x184af58&gt;</div></td></tr><tr><td style="font-weight:bold;vertical-align:top;">wsgi_input</td><td style="vertical-align:top;">:</td><td><div>&lt;socket._fileobject object at 0x20ad7d0&gt;</div></td></tr><tr><td style="font-weight:bold;vertical-align:top;">wsgi_multiprocess</td><td style="vertical-align:top;">:</td><td><div>False</div></td></tr><tr><td style="font-weight:bold;vertical-align:top;">wsgi_multithread</td><td style="vertical-align:top;">:</td><td><div>True</div></td></tr><tr><td style="font-weight:bold;vertical-align:top;">wsgi_run_once</td><td style="vertical-align:top;">:</td><td><div>False</div></td></tr><tr><td style="font-weight:bold;vertical-align:top;">wsgi_url_scheme</td><td style="vertical-align:top;">:</td><td><div>http</div></td></tr><tr><td style="font-weight:bold;vertical-align:top;">wsgi_version</td><td style="vertical-align:top;">:</td><td><div><table><tr><td><div>1</div></td></tr><tr><td><div>0</div></td></tr></table></div></td></tr></table></div></td></tr><tr><td style="font-weight:bold;vertical-align:top;">extension</td><td style="vertical-align:top;">:</td><td><div>html</div></td></tr><tr><td style="font-weight:bold;vertical-align:top;">folder</td><td style="vertical-align:top;">:</td><td><div>/home/tanguyl/Documents/projetPython/web2py/applications/TEMPLATE/</div></td></tr><tr><td style="font-weight:bold;vertical-align:top;">function</td><td style="vertical-align:top;">:</td><td><div>index</div></td></tr><tr><td style="font-weight:bold;vertical-align:top;">global_settings</td><td style="vertical-align:top;">:</td><td><div><table><tr><td style="font-weight:bold;vertical-align:top;">app_folders</td><td style="vertical-align:top;">:</td><td><div>set([&#x27;/home/tanguyl/Documents/projetPython/web2py/applications/admin/&#x27;, &#x27;/home/tanguyl/Documents/projetPython/web2py/applications/TEMPLATE/&#x27;])</div></td></tr><tr><td style="font-weight:bold;vertical-align:top;">applications_parent</td><td style="vertical-align:top;">:</td><td><div>/home/tanguyl/Documents/projetPython/web2py</div></td></tr><tr><td style="font-weight:bold;vertical-align:top;">cmd_args</td><td style="vertical-align:top;">:</td><td><div><table></table></div></td></tr><tr><td style="font-weight:bold;vertical-align:top;">cmd_options</td><td style="vertical-align:top;">:</td><td><div>&lt;Values at 0x18aa908: {&#x27;verbose&#x27;: False, &#x27;ip&#x27;: &#x27;127.0.0.1&#x27;, &#x27;debuglevel&#x27;: 30, &#x27;with_scheduler&#x27;: False, &#x27;shutdown_timeout&#x27;: 5, &#x27;taskbar&#x27;: False, &#x27;with_coverage&#x27;: False, &#x27;pid_filename&#x27;: &#x27;httpserver.pid&#x27;, &#x27;maxthreads&#x27;: None, &#x27;softcron&#x27;: False, &#x27;server_name&#x27;: &#x27;debian&#x27;, &#x27;bpython&#x27;: False, &#x27;nogui&#x27;: False, &#x27;port&#x27;: 8000, &#x27;print_errors&#x27;: False, &#x27;extcron&#x27;: False, &#x27;runcron&#x27;: False, &#x27;run_system_tests&#x27;: False, &#x27;test&#x27;: None, &#x27;folder&#x27;: &#x27;/home/tanguyl/Documents/projetPython/web2py&#x27;, &#x27;config&#x27;: &#x27;&#x27;, &#x27;minthreads&#x27;: None, &#x27;shell&#x27;: None, &#x27;run&#x27;: &#x27;&#x27;, &#x27;log_filename&#x27;: &#x27;httpserver.log&#x27;, &#x27;profiler_dir&#x27;: None, &#x27;args&#x27;: [&#x27;&#x27;], &#x27;socket_timeout&#x27;: 5, &#x27;ssl_ca_certificate&#x27;: None, &#x27;scheduler&#x27;: None, &#x27;interfaces&#x27;: None, &#x27;ssl_private_key&#x27;: &#x27;&#x27;, &#x27;gae&#x27;: None, &#x27;password&#x27;: &#x27;******&#x27;, &#x27;request_queue_size&#x27;: 5, &#x27;ssl_certificate&#x27;: &#x27;&#x27;, &#x27;cronjob&#x27;: False, &#x27;numthreads&#x27;: None, &#x27;quiet&#x27;: False, &#x27;import_models&#x27;: False, &#x27;timeout&#x27;: 10, &#x27;plain&#x27;: False, &#x27;nobanner&#x27;: False}&gt;</div></td></tr><tr><td style="font-weight:bold;vertical-align:top;">db_sessions</td><td style="vertical-align:top;">:</td><td><div>set([])</div></td></tr><tr><td style="font-weight:bold;vertical-align:top;">debugging</td><td style="vertical-align:top;">:</td><td><div>False</div></td></tr><tr><td style="font-weight:bold;vertical-align:top;">gluon_parent</td><td style="vertical-align:top;">:</td><td><div>/home/tanguyl/Documents/projetPython/web2py</div></td></tr><tr><td style="font-weight:bold;vertical-align:top;">is_jython</td><td style="vertical-align:top;">:</td><td><div>False</div></td></tr><tr><td style="font-weight:bold;vertical-align:top;">is_pypy</td><td style="vertical-align:top;">:</td><td><div>False</div></td></tr><tr><td style="font-weight:bold;vertical-align:top;">is_source</td><td style="vertical-align:top;">:</td><td><div>True</div></td></tr><tr><td style="font-weight:bold;vertical-align:top;">local_hosts</td><td style="vertical-align:top;">:</td><td><div><table><tr><td><div>::1</div></td></tr><tr><td><div>127.0.1.1</div></td></tr><tr><td><div>::ffff:127.0.0.1</div></td></tr><tr><td><div>127.0.0.1</div></td></tr><tr><td><div>debian</div></td></tr></table></div></td></tr><tr><td style="font-weight:bold;vertical-align:top;">web2py_version</td><td style="vertical-align:top;">:</td><td><div>2.14.3-stable+timestamp.2016.03.26.23.02.02</div></td></tr></table></div></td></tr><tr><td style="font-weight:bold;vertical-align:top;">is_https</td><td style="vertical-align:top;">:</td><td><div>False</div></td></tr><tr><td style="font-weight:bold;vertical-align:top;">is_local</td><td style="vertical-align:top;">:</td><td><div>True</div></td></tr><tr><td style="font-weight:bold;vertical-align:top;">is_restful</td><td style="vertical-align:top;">:</td><td><div>False</div></td></tr><tr><td style="font-weight:bold;vertical-align:top;">is_scheduler</td><td style="vertical-align:top;">:</td><td><div>False</div></td></tr><tr><td style="font-weight:bold;vertical-align:top;">is_shell</td><td style="vertical-align:top;">:</td><td><div>False</div></td></tr><tr><td style="font-weight:bold;vertical-align:top;">now</td><td style="vertical-align:top;">:</td><td><div>datetime.datetime(2016, 4, 6, 15, 41, 29, 863104)</div></td></tr><tr><td style="font-weight:bold;vertical-align:top;">raw_args</td><td style="vertical-align:top;">:</td><td><div></div></td></tr><tr><td style="font-weight:bold;vertical-align:top;">raw_extension</td><td style="vertical-align:top;">:</td><td><div>None</div></td></tr><tr><td style="font-weight:bold;vertical-align:top;">url</td><td style="vertical-align:top;">:</td><td><div>/TEMPLATE/default/index</div></td></tr><tr><td style="font-weight:bold;vertical-align:top;">utcnow</td><td style="vertical-align:top;">:</td><td><div>datetime.datetime(2016, 4, 6, 13, 41, 29, 863137)</div></td></tr><tr><td style="font-weight:bold;vertical-align:top;">wsgi</td><td style="vertical-align:top;">:</td><td><div>&lt;gluon.main.LazyWSGI object at 0x20946d0&gt;</div></td></tr></table></div>'
tRp62
sS'frames'
p63
(lp64
(dp65
S'file'
p66
S'/home/tanguyl/Documents/projetPython/web2py/gluon/restricted.py'
p67
sS'dump'
p68
(dp69
S'environment'
p70
S"{'A': <class 'gluon.html.A'>, 'ANY_OF': <class 'gluon.validators.ANY_OF'>, 'ASSIGNJS': <function ASSIGNJS>, 'AppConfig': <function AppConfig>, 'Auth': <class 'gluon.tools.Auth'>, 'B': <class 'gluon.html.B'>, 'BEAUTIFY': <class 'gluon.html.BEAUTIFY'>, 'BODY': <class 'gluon.html.BODY'>, 'BR': <class 'gluon.html.BR'>, 'BUTTON': <class 'gluon.html.BUTTON'>, ...}"
p71
sS'ccode'
p72
S'<code object <module> at 0x20c58b0, file "/home/...b2py/applications/TEMPLATE/models/db.py", line 2>'
p73
ssS'lnum'
p74
I227
sS'lines'
p75
(dp76
I224
S'            ccode = code'
p77
sI225
S'        else:'
p78
sI226
S'            ccode = compile2(code, layer)'
p79
sI227
S'        exec ccode in environment'
p80
sI228
S'    except HTTP:'
p81
sI229
S'        raise'
p82
sI230
S'    except RestrictedError:'
p83
sI231
S'        # do not encapsulate (obfuscate) the original RestrictedError'
p84
sI222
S'    try:'
p85
sI223
S'        if isinstance(code, types.CodeType):'
p86
ssS'call'
p87
S'(code=\'# -*- coding: utf-8 -*-\\nimport glob,os\\n#########...log%2Fproduct%2Fsigma%2Fd4292%3Flang%3Dfr\\\')")\\n\\n\\n\\n\', environment={\'A\': <class \'gluon.html.A\'>, \'ANY_OF\': <class \'gluon.validators.ANY_OF\'>, \'ASSIGNJS\': <function ASSIGNJS>, \'AppConfig\': <function AppConfig>, \'Auth\': <class \'gluon.tools.Auth\'>, \'B\': <class \'gluon.html.B\'>, \'BEAUTIFY\': <class \'gluon.html.BEAUTIFY\'>, \'BODY\': <class \'gluon.html.BODY\'>, \'BR\': <class \'gluon.html.BR\'>, \'BUTTON\': <class \'gluon.html.BUTTON\'>, ...}, layer=\'/home/tanguyl/Documents/projetPython/web2py/applications/TEMPLATE/models/db.py\')'
p88
sS'func'
p89
S'restricted'
p90
sa(dp91
g66
S'/home/tanguyl/Documents/projetPython/web2py/applications/TEMPLATE/models/db.py'
p92
sg68
(dp93
S'db.executesql'
p94
S'<bound method DAL.executesql of <DAL uri="sqlite...ns/TEMPLATE/tmp/Inventaireproduitschimiques.db">>'
p95
sS'db'
p96
S'<DAL uri="sqlite:///home/tanguyl/Documents/proje...ons/TEMPLATE/tmp/Inventaireproduitschimiques.db">'
p97
ssg74
I110
sg75
(dp98
I105
S'db.executesql("INSERT INTO Produits_chimiques(Nom_francais,Nom_anglais,Synonyme,N_CAS,Formule,Masse_molaire,Forme,Symbole,Mentions_de_danger,Conseils_de_prudence,FDS_piece_jointe,Hazard_statements,Precautionary_tatements,MSDS_piece_jointe,Lien_FDS,Lien_MSDS) VALUES(\'(\xc2\xb1)-\xce\xb1-Tocopherol\',\'(\xc2\xb1)-\xce\xb1-Tocopherol\',\'Vitamin E | DL-all-rac-\xce\xb1-Tocopherol\',\'10191-41-0\',\'C29H50O2\',\'430,71 g/mol\',\'Solide\',\'\',\'\',\'\',\'(\xc2\xb1)-\xce\xb1-Tocopherol\',\'\',\'\',\'(\xc2\xb1)-\xce\xb1-Tocopherol_(anglais)\',\'http://www.sigmaaldrich.com/MSDS/MSDS/DisplayMSDSPage.do?country=FR&language=fr&productNumber=T3251&brand=SIGMA&PageToGoToURL=http%3A%2F%2Fwww.sigmaaldrich.com%2Fcatalog%2Fproduct%2Fsigma%2Ft3251%3Flang%3Dfr\',\'http://www.sigmaaldrich.com/MSDS/MSDS/DisplayMSDSPage.do?country=FR&language=EN-generic&productNumber=T3251&brand=SIGMA&PageToGoToURL=http%3A%2F%2Fwww.sigmaaldrich.com%2Fcatalog%2Fproduct%2Fsigma%2Ft3251%3Flang%3Dfr\')")'
p99
sI106
S'db.executesql("INSERT INTO Produits_chimiques(Nom_francais,Nom_anglais,Synonyme,N_CAS,Formule,Masse_molaire,Forme,Symbole,Mentions_de_danger,Conseils_de_prudence,FDS_piece_jointe,Hazard_statements,Precautionary_tatements,MSDS_piece_jointe,Lien_FDS,Lien_MSDS) VALUES(\'(RS)-Baclofen\',\'\',\'(RS)-4-Amino-3-(4-chlorophenyl)butanoic acid\',\'1134-47-0\',\'C10H12CINO2\',\'213,66g/mol\',\'Solide\',\'SGH06\',\'H301\',\'P264 | P301+P310\',\'\',\'H301\',\'P264 | P301+P310\',\'(RS)-Baclofen_(anglais)\',\'\',\'\')")'
p100
sI107
S'db.executesql("INSERT INTO Produits_chimiques(Nom_francais,Nom_anglais,Synonyme,N_CAS,Formule,Masse_molaire,Forme,Symbole,Mentions_de_danger,Conseils_de_prudence,FDS_piece_jointe,Hazard_statements,Precautionary_tatements,MSDS_piece_jointe,Lien_FDS,Lien_MSDS) VALUES(\'\',\'(S)-(-)-5-Iodowillardiine\',\'(2S)-2-Amino-3-(5-iodo-2,4-dioxopyrimidin-1-yl)propanoic acid\',\'140187-25-3\',\'C7H8IN3O4\',\'325,06g/mol\',\'Solide\',\'\',\'\',\'\',\'\',\'\',\'\',\'(S)-(-)-5-Iodowillardiine_(anglais)\',\'\',\'\')")'
p101
sI108
S'db.executesql("INSERT INTO Produits_chimiques(Nom_francais,Nom_anglais,Synonyme,N_CAS,Formule,Masse_molaire,Forme,Symbole,Mentions_de_danger,Conseils_de_prudence,FDS_piece_jointe,Hazard_statements,Precautionary_tatements,MSDS_piece_jointe,Lien_FDS,Lien_MSDS) VALUES(\'1,3-Bis-(diph\xc3\xa9nylphosphino)-propane\',\'\',\'dppp\',\'6737-42-4\',\'C27H26P2\',\'412,44 g/mol\',\'Solide\',\'SGH07\',\'H315 |H319 | H335\',\'P261 | P305+P351+P338\',\'1,3-Bis-(diph\xc3\xa9nylphosphino)-propane\',\'H315 |H319 | H335\',\'P261 | P305+P351+P338\',\'1,3-Bis-(diphenylphosphino)-propane_(anglais)\',\'http://www.sigmaaldrich.com/MSDS/MSDS/DisplayMSDSPage.do?country=FR&language=fr&productNumber=262048&brand=ALDRICH&PageToGoToURL=http%3A%2F%2Fwww.sigmaaldrich.com%2Fcatalog%2Fproduct%2Faldrich%2F262048%3Flang%3Dfr\',\'http://www.sigmaaldrich.com/MSDS/MSDS/DisplayMSDSPage.do?country=FR&language=EN-generic&productNumber=262048&brand=ALDRICH&PageToGoToURL=http%3A%2F%2Fwww.sigmaaldrich.com%2Fcatalog%2Fproduct%2Faldrich%2F262048%3Flang%3Dfr\')")'
p102
sI109
S'db.executesql("INSERT INTO Produits_chimiques(Nom_francais,Nom_anglais,Synonyme,N_CAS,Formule,Masse_molaire,Forme,Symbole,Mentions_de_danger,Conseils_de_prudence,FDS_piece_jointe,Hazard_statements,Precautionary_tatements,MSDS_piece_jointe,Lien_FDS,Lien_MSDS) VALUES(\'1,4-Phenylenediamine\',\'\',\'1,4-Diaminobenzene | 1,4-Benzenediamine | p-Phenylenediamine\',\'106-50-3\',\'C6H8N2\',\'108,14 g/mol\',\'Solide\',\'SGH06 | SGH09\',\'H301 | H311 | H317 | H319 |H331 | H410\',\'P261 | P273 | P280 | P301+P310 | P305+P351+P338\',\'1,4-Phenylenediamine\',\'H301 | H311 | H317 | H319 |H331 | H410\',\'P261 | P273 | P280 | P301+P310 | P305+P351+P338\',\'1,4-Phenylenediamine_(anglais)\',\'http://www.sigmaaldrich.com/MSDS/MSDS/DisplayMSDSPage.do?country=FR&language=fr&productNumber=78429&brand=ALDRICH&PageToGoToURL=http%3A%2F%2Fwww.sigmaaldrich.com%2Fcatalog%2Fproduct%2Faldrich%2F78429%3Flang%3Dfr\',\'http://www.sigmaaldrich.com/MSDS/MSDS/DisplayMSDSPage.do?country=FR&language=EN-generic&productNumber=78429&brand=ALDRICH&PageToGoToURL=http%3A%2F%2Fwww.sigmaaldrich.com%2Fcatalog%2Fproduct%2Faldrich%2F78429%3Flang%3Dfr\')")'
p103
sI110
S'db.executesql("INSERT INTO Produits_chimiques(Nom_francais,Nom_anglais,Synonyme,N_CAS,Formule,Masse_molaire,Forme,Symbole,Mentions_de_danger,Conseils_de_prudence,FDS_piece_jointe,Hazard_statements,Precautionary_tatements,MSDS_piece_jointe,Lien_FDS,Lien_MSDS) VALUES(\'2,2\'-Thiodi\xc3\xa9thanol\',\'2,2\'-Thiodiethanol\',\'2,2\xe2\x80\xb2-Thiobis(ethanol) | Bis(2-hydroxyethyl) sulfide | Thiodiethylene glycol | Thiodiglycol\',\'111-48-8\',\'C4H10O2S\',\'122,19 g/mol\',\'Solide\',\'SGH07\',\'H319\',\'P305+P351+P338\',\'2,2\'-Thiodi\xc3\xa9thanol\',\'H319\',\'P305+P351+P338\',\'2,2\'-Thiodiethanol_(anglais)\',\'http://www.sigmaaldrich.com/MSDS/MSDS/DisplayMSDSPage.do?country=FR&language=fr&productNumber=166782&brand=ALDRICH&PageToGoToURL=http%3A%2F%2Fwww.sigmaaldrich.com%2Fcatalog%2Fproduct%2Faldrich%2F166782%3Flang%3Dfr\',\'http://www.sigmaaldrich.com/MSDS/MSDS/DisplayMSDSPage.do?country=FR&language=EN-generic&productNumber=166782&brand=ALDRICH&PageToGoToURL=http%3A%2F%2Fwww.sigmaaldrich.com%2Fcatalog%2Fproduct%2Faldrich%2F166782%3Flang%3Dfr\')")'
p104
sI111
S'db.executesql("INSERT INTO Produits_chimiques(Nom_francais,Nom_anglais,Synonyme,N_CAS,Formule,Masse_molaire,Forme,Symbole,Mentions_de_danger,Conseils_de_prudence,FDS_piece_jointe,Hazard_statements,Precautionary_tatements,MSDS_piece_jointe,Lien_FDS,Lien_MSDS) VALUES(\'\',\'2-Bromohexadecanoic acid\',\'2-Bromopalmitic acid\',\'18263-25-7\',\'C16H31BrO2\',\'335,32 g/mol\',\'Solide\',\'SGH07\',\'H315 |H319 | H335\',\'P261 | P305+P351+P338\',\'2-Bromohexadecanoic_acid\',\'H315 |H319 | H335\',\'P261 | P305+P351+P338\',\'2-Bromohexadecanoic_acid (anglais)\',\'http://www.sigmaaldrich.com/MSDS/MSDS/DisplayMSDSPage.do?country=FR&language=fr&productNumber=21604&brand=ALDRICH&PageToGoToURL=http%3A%2F%2Fwww.sigmaaldrich.com%2Fcatalog%2Fproduct%2Faldrich%2F21604%3Flang%3Dfr\',\'http://www.sigmaaldrich.com/MSDS/MSDS/DisplayMSDSPage.do?country=FR&language=EN-generic&productNumber=21604&brand=ALDRICH&PageToGoToURL=http%3A%2F%2Fwww.sigmaaldrich.com%2Fcatalog%2Fproduct%2Faldrich%2F21604%3Flang%3Dfr\')")'
p105
sI112
S'db.executesql("INSERT INTO Produits_chimiques(Nom_francais,Nom_anglais,Synonyme,N_CAS,Formule,Masse_molaire,Forme,Symbole,Mentions_de_danger,Conseils_de_prudence,FDS_piece_jointe,Hazard_statements,Precautionary_tatements,MSDS_piece_jointe,Lien_FDS,Lien_MSDS) VALUES(\'2-Chloroadenosine\',\'\',\'2-CADO | 6-Amino-2-chloropurine riboside\',\'146-77-0\',\'C10H12ClN5O4\',\'301,69 g/mol\',\'Solide\',\'\',\'\',\'\',\'2-Chloroadenosine\',\'\',\'\',\'2-Chloroadenosine_(anglais)\',\'http://www.sigmaaldrich.com/MSDS/MSDS/DisplayMSDSPage.do?country=FR&language=fr&productNumber=C5134&brand=SIGMA&PageToGoToURL=http%3A%2F%2Fwww.sigmaaldrich.com%2Fcatalog%2Fproduct%2Fsigma%2Fc5134%3Flang%3Dfr\',\'http://www.sigmaaldrich.com/MSDS/MSDS/DisplayMSDSPage.do?country=FR&language=EN-generic&productNumber=C5134&brand=SIGMA&PageToGoToURL=http%3A%2F%2Fwww.sigmaaldrich.com%2Fcatalog%2Fproduct%2Fsigma%2Fc5134%3Flang%3Dfr\')")'
p106
sI113
S'db.executesql("INSERT INTO Produits_chimiques(Nom_francais,Nom_anglais,Synonyme,N_CAS,Formule,Masse_molaire,Forme,Symbole,Mentions_de_danger,Conseils_de_prudence,FDS_piece_jointe,Hazard_statements,Precautionary_tatements,MSDS_piece_jointe,Lien_FDS,Lien_MSDS) VALUES(\'2-Mercapto-\xc3\xa9thanesulfonate de sodium\',\'Sodium 2-mercaptoethanesulfonate\',\'MESNA | HS-CoM Na | 2-Mercaptoethanesulfonic acidsodium salt | Coenzyme Msodium salt\',\'19767-45-4\',\'C2H5NaO3S2C2H5NaO3S2\',\'164,18 g/mol\',\'Solide\',\'SGH07\',\'H315 | H319 | H335\',\'P261 | P305+P351+P338\',\'2-Mercapto-\xc3\xa9thanesulfonate_de_sodium\',\'\',\'\',\'2-Mercapto-\xc3\xa9thanesulfonate_de_sodium_(anglais)\',\'http://www.sigmaaldrich.com/MSDS/MSDS/DisplayMSDSPage.do?country=FR&language=fr&productNumber=M1511&brand=SIAL&PageToGoToURL=http%3A%2F%2Fwww.sigmaaldrich.com%2Fcatalog%2Fproduct%2Fsial%2Fm1511%3Flang%3Dfr\',\'http://www.sigmaaldrich.com/MSDS/MSDS/DisplayMSDSPage.do?country=FR&language=EN-generic&productNumber=M1511&brand=SIAL&PageToGoToURL=http%3A%2F%2Fwww.sigmaaldrich.com%2Fcatalog%2Fproduct%2Fsial%2Fm1511%3Flang%3Dfr\')")'
p107
sI114
S'db.executesql("INSERT INTO Produits_chimiques(Nom_francais,Nom_anglais,Synonyme,N_CAS,Formule,Masse_molaire,Forme,Symbole,Mentions_de_danger,Conseils_de_prudence,FDS_piece_jointe,Hazard_statements,Precautionary_tatements,MSDS_piece_jointe,Lien_FDS,Lien_MSDS) VALUES(\'3,3\xc2\xb4-Diaminobenzidine\',\'\',\'DAB | 3,3\xe2\x80\xb2,4,4\xe2\x80\xb2-Biphenyltetramine | 3,3\xe2\x80\xb2,4,4\xe2\x80\xb2-Tetraaminobiphenyl\',\'91-95-2\',\'C12H14N4\',\'214,27 g/mol\',\'Solide\',\'SGH08\',\'H341 | H350\',\'P201 | P281 | P308+P313\',\'3,3\xc2\xb4-Diaminobenzidine\',\'\',\'\',\'3,3\xc2\xb4-Diaminobenzidine_(anglais)\',\'http://www.sigmaaldrich.com/MSDS/MSDS/DisplayMSDSPage.do?country=FR&language=fr&productNumber=D8001&brand=SIAL&PageToGoToURL=http%3A%2F%2Fwww.sigmaaldrich.com%2Fcatalog%2Fproduct%2Fsial%2Fd8001%3Flang%3Dfr\',\'http://www.sigmaaldrich.com/MSDS/MSDS/DisplayMSDSPage.do?country=FR&language=EN-generic&productNumber=D8001&brand=SIAL&PageToGoToURL=http%3A%2F%2Fwww.sigmaaldrich.com%2Fcatalog%2Fproduct%2Fsial%2Fd8001%3Flang%3Dfr\')")'
p108
ssg87
S'()'
p109
sg89
S'<module>'
p110
sa(dp111
g66
S'/home/tanguyl/Documents/projetPython/web2py/gluon/packages/dal/pydal/base.py'
p112
sg68
(dp113
S'query'
p114
S'"INSERT INTO Produits_chimiques(Nom_francais,Nom_...atalog%2Fproduct%2Faldrich%2F166782%3Flang%3Dfr\')"'
p115
sS'adapter'
p116
S'<pydal.adapters.sqlite.SQLiteAdapter object>'
p117
sS'adapter.execute'
p118
S'<bound method SQLiteAdapter.execute of <pydal.adapters.sqlite.SQLiteAdapter object>>'
p119
ssg74
I1019
sg75
(dp120
I1014
S'        """'
p121
sI1015
S'        adapter = self._adapter'
p122
sI1016
S'        if placeholders:'
p123
sI1017
S'            adapter.execute(query, placeholders)'
p124
sI1018
S'        else:'
p125
sI1019
S'            adapter.execute(query)'
p126
sI1020
S'        if as_dict or as_ordered_dict:'
p127
sI1021
S"            if not hasattr(adapter.cursor,'description'):"
p128
sI1022
S'                raise RuntimeError("database does not support executesql(...,as_dict=True)")'
p129
sI1023
S'            # Non-DAL legacy db query, converts cursor results to dict.'
p130
ssg87
S'(self=<DAL uri="sqlite:///home/tanguyl/Documents/proje...ons/TEMPLATE/tmp/Inventaireproduitschimiques.db">, query="INSERT INTO Produits_chimiques(Nom_francais,Nom_...atalog%2Fproduct%2Faldrich%2F166782%3Flang%3Dfr\')", placeholders=None, as_dict=False, fields=None, colnames=None, as_ordered_dict=False)'
p131
sg89
S'executesql'
p132
sa(dp133
g66
S'/home/tanguyl/Documents/projetPython/web2py/gluon/packages/dal/pydal/adapters/base.py'
p134
sg68
(dp135
S'a'
S'("INSERT INTO Produits_chimiques(Nom_francais,Nom_...atalog%2Fproduct%2Faldrich%2F166782%3Flang%3Dfr\')",)'
p136
sS'self'
p137
S'<pydal.adapters.sqlite.SQLiteAdapter object>'
p138
sS'b'
g21
sS'self.log_execute'
p139
S'<bound method SQLiteAdapter.log_execute of <pydal.adapters.sqlite.SQLiteAdapter object>>'
p140
ssg74
I1388
sg75
(dp141
I1383
S'        self.db._timings.append((command,time.time()-t0))'
p142
sI1384
S'        del self.db._timings[:-TIMINGSSIZE]'
p143
sI1385
S'        return ret'
p144
sI1386
S''
sI1387
S'    def execute(self, *a, **b):'
p145
sI1388
S'        return self.log_execute(*a, **b)'
p146
sI1389
S''
sI1390
S'    def execute_test_query(self):'
p147
sI1391
S'        return self.execute(self.test_query)'
p148
sI1392
S''
ssg87
S'(self=<pydal.adapters.sqlite.SQLiteAdapter object>, *a=("INSERT INTO Produits_chimiques(Nom_francais,Nom_...atalog%2Fproduct%2Faldrich%2F166782%3Flang%3Dfr\')",), **b={})'
p149
sg89
S'execute'
p150
sa(dp151
g66
S'/home/tanguyl/Documents/projetPython/web2py/gluon/packages/dal/pydal/adapters/base.py'
p152
sg68
(dp153
S'a'
S'("INSERT INTO Produits_chimiques(Nom_francais,Nom_...atalog%2Fproduct%2Faldrich%2F166782%3Flang%3Dfr\')",)'
p154
sS'b'
g21
sS'self'
p155
S'<pydal.adapters.sqlite.SQLiteAdapter object>'
p156
sS'ret'
p157
S'undefined'
p158
sS'command'
p159
S'"INSERT INTO Produits_chimiques(Nom_francais,Nom_...atalog%2Fproduct%2Faldrich%2F166782%3Flang%3Dfr\')"'
p160
sS'self.get_cursor'
p161
S'<bound method SQLiteAdapter.get_cursor of <pydal.adapters.sqlite.SQLiteAdapter object>>'
p162
sS').execute'
p163
g158
ssg74
I1382
sg75
(dp164
I1377
S'            command = self.filter_sql_command(command)'
p165
sI1378
S'        if self.db._debug:'
p166
sI1379
S"            self.db.logger.debug('SQL: %s' % command)"
p167
sI1380
S'        self.db._lastsql = command'
p168
sI1381
S'        t0 = time.time()'
p169
sI1382
S'        ret = self.get_cursor().execute(command, *a[1:], **b)'
p170
sI1383
S'        self.db._timings.append((command,time.time()-t0))'
p171
sI1384
S'        del self.db._timings[:-TIMINGSSIZE]'
p172
sI1385
S'        return ret'
p173
sI1386
S''
ssg87
S'(self=<pydal.adapters.sqlite.SQLiteAdapter object>, *a=("INSERT INTO Produits_chimiques(Nom_francais,Nom_...atalog%2Fproduct%2Faldrich%2F166782%3Flang%3Dfr\')",), **b={})'
p174
sg89
S'log_execute'
p175
sasS'pyver'
p176
S'Python 2.7.3: /usr/bin/python (prefix: /usr)'
p177
sS'session'
p178
g61
(S's\x1a\x00\x00\x00<div><table></table></div>'
tRp179
sS'etype'
p180
S"<class 'sqlite3.OperationalError'>"
p181
sS'date'
p182
S'Wed Apr  6 15:41:29 2016'
p183
sS'response'
p184
g61
(S'sF\x16\x00\x00<div><table><tr><td style="font-weight:bold;vertical-align:top;">body</td><td style="vertical-align:top;">:</td><td><div>&lt;cStringIO.StringO object at 0x21398b8&gt;</div></td></tr><tr><td style="font-weight:bold;vertical-align:top;">cookies</td><td style="vertical-align:top;">:</td><td><div><table><tr><td style="font-weight:bold;vertical-align:top;">session_id_template</td><td style="vertical-align:top;">:</td><td><div>127.0.0.1-5dd2dde2-b4dc-4943-bbb6-d20dc6f6d6a2<table><tr><td style="font-weight:bold;vertical-align:top;">comment</td><td style="vertical-align:top;">:</td><td><div></div></td></tr><tr><td style="font-weight:bold;vertical-align:top;">domain</td><td style="vertical-align:top;">:</td><td><div></div></td></tr><tr><td style="font-weight:bold;vertical-align:top;">expires</td><td style="vertical-align:top;">:</td><td><div></div></td></tr><tr><td style="font-weight:bold;vertical-align:top;">httponly</td><td style="vertical-align:top;">:</td><td><div></div></td></tr><tr><td style="font-weight:bold;vertical-align:top;">max-age</td><td style="vertical-align:top;">:</td><td><div></div></td></tr><tr><td style="font-weight:bold;vertical-align:top;">path</td><td style="vertical-align:top;">:</td><td><div>/</div></td></tr><tr><td style="font-weight:bold;vertical-align:top;">secure</td><td style="vertical-align:top;">:</td><td><div></div></td></tr><tr><td style="font-weight:bold;vertical-align:top;">version</td><td style="vertical-align:top;">:</td><td><div></div></td></tr></table></div></td></tr></table></div></td></tr><tr><td style="font-weight:bold;vertical-align:top;">delimiters</td><td style="vertical-align:top;">:</td><td><div><table><tr><td><div>{{</div></td></tr><tr><td><div>}}</div></td></tr></table></div></td></tr><tr><td style="font-weight:bold;vertical-align:top;">files</td><td style="vertical-align:top;">:</td><td><div><table></table></div></td></tr><tr><td style="font-weight:bold;vertical-align:top;">flash</td><td style="vertical-align:top;">:</td><td><div></div></td></tr><tr><td style="font-weight:bold;vertical-align:top;">form_label_separator</td><td style="vertical-align:top;">:</td><td><div></div></td></tr><tr><td style="font-weight:bold;vertical-align:top;">formstyle</td><td style="vertical-align:top;">:</td><td><div>bootstrap3_inline</div></td></tr><tr><td style="font-weight:bold;vertical-align:top;">generic_patterns</td><td style="vertical-align:top;">:</td><td><div><table><tr><td><div>*</div></td></tr></table></div></td></tr><tr><td style="font-weight:bold;vertical-align:top;">headers</td><td style="vertical-align:top;">:</td><td><div><table><tr><td style="font-weight:bold;vertical-align:top;">X-Powered-By</td><td style="vertical-align:top;">:</td><td><div>web2py</div></td></tr></table></div></td></tr><tr><td style="font-weight:bold;vertical-align:top;">menu</td><td style="vertical-align:top;">:</td><td><div><table></table></div></td></tr><tr><td style="font-weight:bold;vertical-align:top;">meta</td><td style="vertical-align:top;">:</td><td><div><table></table></div></td></tr><tr><td style="font-weight:bold;vertical-align:top;">models_to_run</td><td style="vertical-align:top;">:</td><td><div><table><tr><td><div>^\\w+\\.py$</div></td></tr><tr><td><div>^default/\\w+\\.py$</div></td></tr><tr><td><div>^default/index/\\w+\\.py$</div></td></tr></table></div></td></tr><tr><td style="font-weight:bold;vertical-align:top;">postprocessing</td><td style="vertical-align:top;">:</td><td><div><table></table></div></td></tr><tr><td style="font-weight:bold;vertical-align:top;">session_client</td><td style="vertical-align:top;">:</td><td><div>127.0.0.1</div></td></tr><tr><td style="font-weight:bold;vertical-align:top;">session_cookie_compression_level</td><td style="vertical-align:top;">:</td><td><div>None</div></td></tr><tr><td style="font-weight:bold;vertical-align:top;">session_cookie_expires</td><td style="vertical-align:top;">:</td><td><div>None</div></td></tr><tr><td style="font-weight:bold;vertical-align:top;">session_data_name</td><td style="vertical-align:top;">:</td><td><div>session_data_template</div></td></tr><tr><td style="font-weight:bold;vertical-align:top;">session_file</td><td style="vertical-align:top;">:</td><td><div>None</div></td></tr><tr><td style="font-weight:bold;vertical-align:top;">session_filename</td><td style="vertical-align:top;">:</td><td><div>/home/tanguyl/Documents/projetPython/web2py/applications/TEMPLATE/sessions/127.0.0.1-5dd2dde2-b4dc-4943-bbb6-d20dc6f6d6a2</div></td></tr><tr><td style="font-weight:bold;vertical-align:top;">session_hash</td><td style="vertical-align:top;">:</td><td><div>c0762cbf4baf7f9af97c051e7fcb8083</div></td></tr><tr><td style="font-weight:bold;vertical-align:top;">session_id</td><td style="vertical-align:top;">:</td><td><div>127.0.0.1-5dd2dde2-b4dc-4943-bbb6-d20dc6f6d6a2</div></td></tr><tr><td style="font-weight:bold;vertical-align:top;">session_id_name</td><td style="vertical-align:top;">:</td><td><div>session_id_template</div></td></tr><tr><td style="font-weight:bold;vertical-align:top;">session_masterapp</td><td style="vertical-align:top;">:</td><td><div>TEMPLATE</div></td></tr><tr><td style="font-weight:bold;vertical-align:top;">session_new</td><td style="vertical-align:top;">:</td><td><div>True</div></td></tr><tr><td style="font-weight:bold;vertical-align:top;">session_storage_type</td><td style="vertical-align:top;">:</td><td><div>file</div></td></tr><tr><td style="font-weight:bold;vertical-align:top;">status</td><td style="vertical-align:top;">:</td><td><div>200</div></td></tr><tr><td style="font-weight:bold;vertical-align:top;">view</td><td style="vertical-align:top;">:</td><td><div>default/index.html</div></td></tr></table></div>'
tRp185
sS'locals'
p186
(dp187
S'a'
S'("INSERT INTO Produits_chimiques(Nom_francais,Nom_...atalog%2Fproduct%2Faldrich%2F166782%3Flang%3Dfr\')",)'
p188
sS'self'
p189
S'<pydal.adapters.sqlite.SQLiteAdapter object>'
p190
sS'b'
g21
sS'command'
p191
S'"INSERT INTO Produits_chimiques(Nom_francais,Nom_...atalog%2Fproduct%2Faldrich%2F166782%3Flang%3Dfr\')"'
p192
sS't0'
p193
S'1459950089.876308'
p194
sssS'traceback'
p195
S'Traceback (most recent call last):\n  File "/home/tanguyl/Documents/projetPython/web2py/gluon/restricted.py", line 227, in restricted\n    exec ccode in environment\n  File "/home/tanguyl/Documents/projetPython/web2py/applications/TEMPLATE/models/db.py", line 110, in <module>\n    db.executesql("INSERT INTO Produits_chimiques(Nom_francais,Nom_anglais,Synonyme,N_CAS,Formule,Masse_molaire,Forme,Symbole,Mentions_de_danger,Conseils_de_prudence,FDS_piece_jointe,Hazard_statements,Precautionary_tatements,MSDS_piece_jointe,Lien_FDS,Lien_MSDS) VALUES(\'2,2\'-Thiodi\xc3\xa9thanol\',\'2,2\'-Thiodiethanol\',\'2,2\xe2\x80\xb2-Thiobis(ethanol) | Bis(2-hydroxyethyl) sulfide | Thiodiethylene glycol | Thiodiglycol\',\'111-48-8\',\'C4H10O2S\',\'122,19 g/mol\',\'Solide\',\'SGH07\',\'H319\',\'P305+P351+P338\',\'2,2\'-Thiodi\xc3\xa9thanol\',\'H319\',\'P305+P351+P338\',\'2,2\'-Thiodiethanol_(anglais)\',\'http://www.sigmaaldrich.com/MSDS/MSDS/DisplayMSDSPage.do?country=FR&language=fr&productNumber=166782&brand=ALDRICH&PageToGoToURL=http%3A%2F%2Fwww.sigmaaldrich.com%2Fcatalog%2Fproduct%2Faldrich%2F166782%3Flang%3Dfr\',\'http://www.sigmaaldrich.com/MSDS/MSDS/DisplayMSDSPage.do?country=FR&language=EN-generic&productNumber=166782&brand=ALDRICH&PageToGoToURL=http%3A%2F%2Fwww.sigmaaldrich.com%2Fcatalog%2Fproduct%2Faldrich%2F166782%3Flang%3Dfr\')")\n  File "/home/tanguyl/Documents/projetPython/web2py/gluon/packages/dal/pydal/base.py", line 1019, in executesql\n    adapter.execute(query)\n  File "/home/tanguyl/Documents/projetPython/web2py/gluon/packages/dal/pydal/adapters/base.py", line 1388, in execute\n    return self.log_execute(*a, **b)\n  File "/home/tanguyl/Documents/projetPython/web2py/gluon/packages/dal/pydal/adapters/base.py", line 1382, in log_execute\n    ret = self.get_cursor().execute(command, *a[1:], **b)\nOperationalError: near "\',\'": syntax error\n'
p196
s.